
cpu_C.elf:     file format elf32-littlenios2
cpu_C.elf
architecture: nios2, flags 0x00000112:
EXEC_P, HAS_SYMS, D_PAGED
start address 0x000401b8

Program Header:
    LOAD off    0x00001000 vaddr 0x00040000 paddr 0x00040000 align 2**12
         filesz 0x00000020 memsz 0x00000020 flags r-x
    LOAD off    0x00001020 vaddr 0x00040020 paddr 0x00040020 align 2**12
         filesz 0x0000e3d0 memsz 0x0000e3d0 flags r-x
    LOAD off    0x0000f3f0 vaddr 0x0004e3f0 paddr 0x0004fe5c align 2**12
         filesz 0x00001a6c memsz 0x00001a6c flags rw-
    LOAD off    0x000118c8 vaddr 0x000518c8 paddr 0x000518c8 align 2**12
         filesz 0x00000000 memsz 0x00000300 flags rw-

Sections:
Idx Name          Size      VMA       LMA       File off  Algn
  0 .entry        00000020  00040000  00040000  00001000  2**5
                  CONTENTS, ALLOC, LOAD, READONLY, CODE
  1 .exceptions   00000198  00040020  00040020  00001020  2**2
                  CONTENTS, ALLOC, LOAD, READONLY, CODE
  2 .text         0000de64  000401b8  000401b8  000011b8  2**2
                  CONTENTS, ALLOC, LOAD, READONLY, CODE
  3 .rodata       000003d4  0004e01c  0004e01c  0000f01c  2**2
                  CONTENTS, ALLOC, LOAD, READONLY, DATA
  4 .rwdata       00001a6c  0004e3f0  0004fe5c  0000f3f0  2**2
                  CONTENTS, ALLOC, LOAD, DATA, SMALL_DATA
  5 .bss          00000300  000518c8  000518c8  000118c8  2**2
                  ALLOC, SMALL_DATA
  6 .comment      00000023  00000000  00000000  00010e5c  2**0
                  CONTENTS, READONLY
  7 .debug_aranges 00000e58  00000000  00000000  00010e80  2**3
                  CONTENTS, READONLY, DEBUGGING
  8 .debug_info   000243f9  00000000  00000000  00011cd8  2**0
                  CONTENTS, READONLY, DEBUGGING
  9 .debug_abbrev 00009599  00000000  00000000  000360d1  2**0
                  CONTENTS, READONLY, DEBUGGING
 10 .debug_line   0000aab3  00000000  00000000  0003f66a  2**0
                  CONTENTS, READONLY, DEBUGGING
 11 .debug_frame  0000207c  00000000  00000000  0004a120  2**2
                  CONTENTS, READONLY, DEBUGGING
 12 .debug_str    00003331  00000000  00000000  0004c19c  2**0
                  CONTENTS, READONLY, DEBUGGING
 13 .debug_loc    0001191e  00000000  00000000  0004f4cd  2**0
                  CONTENTS, READONLY, DEBUGGING
 14 .debug_alt_sim_info 00000050  00000000  00000000  00060dec  2**2
                  CONTENTS, READONLY, DEBUGGING
 15 .debug_ranges 00000a98  00000000  00000000  00060e40  2**3
                  CONTENTS, READONLY, DEBUGGING
 16 .thread_model 00000003  00000000  00000000  000652ff  2**0
                  CONTENTS, READONLY
 17 .cpu          00000005  00000000  00000000  00065302  2**0
                  CONTENTS, READONLY
 18 .qsys         00000001  00000000  00000000  00065307  2**0
                  CONTENTS, READONLY
 19 .simulation_enabled 00000001  00000000  00000000  00065308  2**0
                  CONTENTS, READONLY
 20 .sysid_hash   00000004  00000000  00000000  00065309  2**0
                  CONTENTS, READONLY
 21 .sysid_base   00000004  00000000  00000000  0006530d  2**0
                  CONTENTS, READONLY
 22 .sysid_time   00000004  00000000  00000000  00065311  2**0
                  CONTENTS, READONLY
 23 .stderr_dev   00000006  00000000  00000000  00065315  2**0
                  CONTENTS, READONLY
 24 .stdin_dev    00000006  00000000  00000000  0006531b  2**0
                  CONTENTS, READONLY
 25 .stdout_dev   00000006  00000000  00000000  00065321  2**0
                  CONTENTS, READONLY
 26 .sopc_system_name 00000006  00000000  00000000  00065327  2**0
                  CONTENTS, READONLY
 27 .quartus_project_dir 0000001d  00000000  00000000  0006532d  2**0
                  CONTENTS, READONLY
 28 .sopcinfo     001b94d0  00000000  00000000  0006534a  2**0
                  CONTENTS, READONLY
SYMBOL TABLE:
00040000 l    d  .entry	00000000 .entry
00040020 l    d  .exceptions	00000000 .exceptions
000401b8 l    d  .text	00000000 .text
0004e01c l    d  .rodata	00000000 .rodata
0004e3f0 l    d  .rwdata	00000000 .rwdata
000518c8 l    d  .bss	00000000 .bss
00000000 l    d  .comment	00000000 .comment
00000000 l    d  .debug_aranges	00000000 .debug_aranges
00000000 l    d  .debug_info	00000000 .debug_info
00000000 l    d  .debug_abbrev	00000000 .debug_abbrev
00000000 l    d  .debug_line	00000000 .debug_line
00000000 l    d  .debug_frame	00000000 .debug_frame
00000000 l    d  .debug_str	00000000 .debug_str
00000000 l    d  .debug_loc	00000000 .debug_loc
00000000 l    d  .debug_alt_sim_info	00000000 .debug_alt_sim_info
00000000 l    d  .debug_ranges	00000000 .debug_ranges
00000000 l    df *ABS*	00000000 ../cpu_C_bsp//obj/HAL/src/crt0.o
000401f0 l       .text	00000000 alt_after_alt_main
00000000 l    df *ABS*	00000000 alt_exception_entry.o
00040094 l       .exceptions	00000000 alt_exception_unknown
00000000 l    df *ABS*	00000000 alt_irq_handler.c
00000000 l    df *ABS*	00000000 main.c
0004fe0c l     O .rwdata	00000002 c2.2956
0004fe0e l     O .rwdata	00000002 c6.2959
0004fe10 l     O .rwdata	00000002 s2.2962
0004fe12 l     O .rwdata	00000002 c7.2960
0004fe14 l     O .rwdata	00000002 c5.2958
0004fe16 l     O .rwdata	00000002 c3.2957
0004fe18 l     O .rwdata	00000002 c1.2955
0004fe1a l     O .rwdata	00000002 s1.2961
0004fe1c l     O .rwdata	00000002 s3.2963
00000000 l    df *ABS*	00000000 FIFO.c
00000000 l    df *ABS*	00000000 IOMap.c
00000000 l    df *ABS*	00000000 utility.c
00000000 l    df *ABS*	00000000 lib2-mul.c
00000000 l    df *ABS*	00000000 malloc.c
00000000 l    df *ABS*	00000000 mallocr.c
00000000 l    df *ABS*	00000000 printf.c
00000000 l    df *ABS*	00000000 puts.c
00000000 l    df *ABS*	00000000 sbrkr.c
00000000 l    df *ABS*	00000000 strlen.c
00000000 l    df *ABS*	00000000 vfprintf.c
000423b4 l     F .text	00000034 __sprint_r
0004e11e l     O .rodata	00000010 blanks.3515
0004e12e l     O .rodata	00000010 zeroes.3516
00000000 l    df *ABS*	00000000 wsetup.c
00000000 l    df *ABS*	00000000 dtoa.c
000443fc l     F .text	0000023c quorem
00000000 l    df *ABS*	00000000 fflush.c
00000000 l    df *ABS*	00000000 findfp.c
00045e6c l     F .text	00000008 __fp_lock
00045e74 l     F .text	00000008 __fp_unlock
00000000 l    df *ABS*	00000000 mallocr.c
00000000 l    df *ABS*	00000000 fvwrite.c
00000000 l    df *ABS*	00000000 fwalk.c
00000000 l    df *ABS*	00000000 impure.c
0004e7f8 l     O .rwdata	00000400 impure_data
00000000 l    df *ABS*	00000000 int_errno.c
00000000 l    df *ABS*	00000000 locale.c
0004e164 l     O .rodata	00000030 lconv
00000000 l    df *ABS*	00000000 makebuf.c
00000000 l    df *ABS*	00000000 memchr.c
00000000 l    df *ABS*	00000000 memcpy.c
00000000 l    df *ABS*	00000000 memmove.c
00000000 l    df *ABS*	00000000 memset.c
00000000 l    df *ABS*	00000000 mprec.c
0004e2ac l     O .rodata	0000000c p05.2435
00000000 l    df *ABS*	00000000 mallocr.c
00000000 l    df *ABS*	00000000 s_isinfd.c
00000000 l    df *ABS*	00000000 s_isnand.c
00000000 l    df *ABS*	00000000 stdio.c
00000000 l    df *ABS*	00000000 strcmp.c
00000000 l    df *ABS*	00000000 writer.c
00000000 l    df *ABS*	00000000 mallocr.c
00000000 l    df *ABS*	00000000 closer.c
00000000 l    df *ABS*	00000000 fclose.c
00000000 l    df *ABS*	00000000 fstatr.c
00000000 l    df *ABS*	00000000 isattyr.c
00000000 l    df *ABS*	00000000 lseekr.c
00000000 l    df *ABS*	00000000 readr.c
00000000 l    df *ABS*	00000000 libgcc2.c
00000000 l    df *ABS*	00000000 libgcc2.c
00000000 l    df *ABS*	00000000 fp-bit.c
00049c68 l     F .text	00000354 _fpadd_parts
00000000 l    df *ABS*	00000000 fp-bit.c
00000000 l    df *ABS*	00000000 fp-bit.c
00000000 l    df *ABS*	00000000 fp-bit.c
00000000 l    df *ABS*	00000000 fp-bit.c
00000000 l    df *ABS*	00000000 fp-bit.c
00000000 l    df *ABS*	00000000 fp-bit.c
00000000 l    df *ABS*	00000000 fp-bit.c
00000000 l    df *ABS*	00000000 fp-bit.c
00000000 l    df *ABS*	00000000 fp-bit.c
00000000 l    df *ABS*	00000000 fp-bit.c
00000000 l    df *ABS*	00000000 fp-bit.c
00000000 l    df *ABS*	00000000 lib2-divmod.c
0004a9a8 l     F .text	00000074 udivmodsi4
00000000 l    df *ABS*	00000000 libgcc2.c
00000000 l    df *ABS*	00000000 libgcc2.c
00000000 l    df *ABS*	00000000 libgcc2.c
00000000 l    df *ABS*	00000000 fp-bit.c
00000000 l    df *ABS*	00000000 fp-bit.c
00000000 l    df *ABS*	00000000 fp-bit.c
00000000 l    df *ABS*	00000000 libgcc2.c
00000000 l    df *ABS*	00000000 libgcc2.c
00000000 l    df *ABS*	00000000 alt_close.c
0004b114 l     F .text	00000050 alt_get_errno
00000000 l    df *ABS*	00000000 alt_dev.c
0004b230 l     F .text	0000002c alt_dev_null_write
00000000 l    df *ABS*	00000000 alt_errno.c
00000000 l    df *ABS*	00000000 alt_fstat.c
0004b25c l     F .text	00000050 alt_get_errno
00000000 l    df *ABS*	00000000 alt_isatty.c
0004b35c l     F .text	00000050 alt_get_errno
00000000 l    df *ABS*	00000000 alt_load.c
0004b450 l     F .text	0000006c alt_load_section
00000000 l    df *ABS*	00000000 alt_lseek.c
0004b53c l     F .text	00000050 alt_get_errno
00000000 l    df *ABS*	00000000 alt_main.c
00000000 l    df *ABS*	00000000 alt_malloc_lock.c
00000000 l    df *ABS*	00000000 alt_read.c
0004b718 l     F .text	00000050 alt_get_errno
00000000 l    df *ABS*	00000000 alt_release_fd.c
00000000 l    df *ABS*	00000000 alt_sbrk.c
0004fe4c l     O .rwdata	00000004 heap_end
00000000 l    df *ABS*	00000000 alt_usleep.c
00000000 l    df *ABS*	00000000 alt_write.c
0004b9bc l     F .text	00000050 alt_get_errno
00000000 l    df *ABS*	00000000 alt_sys_init.c
0004bafc l     F .text	00000038 alt_dev_reg
0004edac l     O .rwdata	00001060 jtag_C
00000000 l    df *ABS*	00000000 altera_avalon_fifo_util.c
00000000 l    df *ABS*	00000000 altera_avalon_jtag_uart_fd.c
00000000 l    df *ABS*	00000000 altera_avalon_jtag_uart_init.c
0004c30c l     F .text	00000204 altera_avalon_jtag_uart_irq
0004c510 l     F .text	000000a4 altera_avalon_jtag_uart_timeout
00000000 l    df *ABS*	00000000 altera_avalon_jtag_uart_ioctl.c
00000000 l    df *ABS*	00000000 altera_avalon_jtag_uart_read.c
00000000 l    df *ABS*	00000000 altera_avalon_jtag_uart_write.c
00000000 l    df *ABS*	00000000 altera_avalon_timer_sc.c
0004cb4c l     F .text	00000074 alt_avalon_timer_sc_irq
00000000 l    df *ABS*	00000000 altera_avalon_timer_vars.c
00000000 l    df *ABS*	00000000 alt_alarm_start.c
00000000 l    df *ABS*	00000000 alt_busy_sleep.c
00000000 l    df *ABS*	00000000 alt_dcache_flush_all.c
00000000 l    df *ABS*	00000000 alt_dev_llist_insert.c
0004cef8 l     F .text	00000050 alt_get_errno
00000000 l    df *ABS*	00000000 alt_do_ctors.c
00000000 l    df *ABS*	00000000 alt_do_dtors.c
00000000 l    df *ABS*	00000000 alt_icache_flush_all.c
00000000 l    df *ABS*	00000000 alt_iic.c
00000000 l    df *ABS*	00000000 alt_iic_isr_register.c
00000000 l    df *ABS*	00000000 alt_io_redirect.c
0004d398 l     F .text	000000e0 alt_open_fd
00000000 l    df *ABS*	00000000 alt_irq_vars.c
00000000 l    df *ABS*	00000000 alt_open.c
0004d4f0 l     F .text	00000050 alt_get_errno
0004d540 l     F .text	000000f0 alt_file_locked
00000000 l    df *ABS*	00000000 alt_tick.c
00000000 l    df *ABS*	00000000 altera_nios2_qsys_irq.c
00000000 l    df *ABS*	00000000 alt_find_dev.c
00000000 l    df *ABS*	00000000 alt_find_file.c
00000000 l    df *ABS*	00000000 alt_get_fd.c
00000000 l    df *ABS*	00000000 alt_icache_flush.c
00000000 l    df *ABS*	00000000 atexit.c
00000000 l    df *ABS*	00000000 exit.c
00000000 l    df *ABS*	00000000 memcmp.c
00000000 l    df *ABS*	00000000 __atexit.c
00000000 l    df *ABS*	00000000 __call_atexit.c
00000000 l    df *ABS*	00000000 alt_exit.c
00000000 l    df *ABS*	00000000 
00041798 g     F .text	00000030 readStatus_DE
000481a8 g     F .text	00000074 _mprec_log10
00048298 g     F .text	00000084 __any_on
00048eb4 g     F .text	00000064 _isatty_r
0004e194 g     O .rodata	00000028 __mprec_tinytens
0004b660 g     F .text	00000078 alt_main
0004b0d0 g     F .text	00000044 __ashldi3
0004222c g     F .text	00000084 _puts_r
000518c8 g     O .bss	00000004 t
00051938 g     O .bss	00000100 alt_irq
00048f18 g     F .text	0000006c _lseek_r
0004be78 g     F .text	00000058 altera_avalon_fifo_write_almostfull
0004fe5c g       *ABS*	00000000 __flash_rwdata_start
0004136c g     F .text	0000004c write_AE
0004a508 g     F .text	0000005c __eqdf2
00051bc8 g       *ABS*	00000000 __alt_heap_start
000421f0 g     F .text	0000003c printf
00048a58 g     F .text	0000005c __sseek
00045f10 g     F .text	0000010c __sinit
00046ba8 g     F .text	0000009c _setlocale_r
00041708 g     F .text	00000044 read_DE
00045e88 g     F .text	00000078 __sfmoreglue
0004b6f8 g     F .text	00000020 __malloc_unlock
0004025c g     F .text	00000040 processLoop
00051900 g     O .bss	00000004 altera_avalon_timer_ts_freq
00047064 g     F .text	0000018c memmove
0004bbf8 g     F .text	00000098 altera_avalon_fifo_init
00045f00 g     F .text	00000010 _cleanup
0004bf28 g     F .text	00000058 altera_avalon_fifo_write_fifo
000472cc g     F .text	000000a8 _Balloc
00041654 g     F .text	0000004c write_CD
000414e0 g     F .text	00000038 init_BC
0004a5c0 g     F .text	00000064 __gtdf2
00000000  w      *UND*	00000000 __errno
00040000 g     F .entry	0000001c __reset
0004c0c0 g     F .text	00000028 altera_avalon_fifo_read_backpressure
00040020 g       *ABS*	00000000 __flash_exceptions_start
00048e4c g     F .text	00000068 _fstat_r
000518e0 g     O .bss	00000004 errno
000518f4 g     O .bss	00000004 alt_argv
00057e0c g       *ABS*	00000000 _gp
0004b98c g     F .text	00000030 usleep
0004bdc4 g     F .text	0000005c altera_avalon_fifo_clear_event
00041008 g     F .text	00000038 init_AB_1
00041610 g     F .text	00000044 read_CD
0004ec2c g     O .rwdata	00000180 alt_fd_list
00040f4c g     F .text	00000044 read_AB_0
0004d944 g     F .text	00000090 alt_find_dev
00046f24 g     F .text	00000140 memcpy
00045e7c g     F .text	0000000c _cleanup_r
0004a6e4 g     F .text	000000d4 __floatsidf
000415a8 g     F .text	00000030 readStatus_BC
0004d478 g     F .text	00000078 alt_io_redirect
0004a688 g     F .text	0000005c __ltdf2
000412f0 g     F .text	00000038 init_AE
0004e01c g       *ABS*	00000000 __DTOR_END__
000422b0 g     F .text	00000014 puts
00048104 g     F .text	000000a4 __ratio
0004c710 g     F .text	00000218 altera_avalon_jtag_uart_read
00041a18 g     F .text	00000014 malloc
000421c4 g     F .text	0000002c _printf_r
0004aac8 g     F .text	00000008 __udivsi3
0004b3ac g     F .text	000000a4 isatty
0004e1e4 g     O .rodata	000000c8 __mprec_tens
00040d98 g     F .text	0000006c READ_B
00046c44 g     F .text	0000000c __locale_charset
0004dbbc g     F .text	0000008c alt_icache_flush
000414b0 g     F .text	00000030 readStatus_AF
000518dc g     O .bss	00000004 __malloc_top_pad
0004fe30 g     O .rwdata	00000004 __mb_cur_max
00046c50 g     F .text	0000000c _localeconv_r
000476fc g     F .text	0000003c __i2b
00046564 g     F .text	000004e4 __sfvwrite_r
000422c4 g     F .text	00000064 _sbrk_r
00040f90 g     F .text	00000048 write_AB_0
000416d0 g     F .text	00000038 init_DE
00048f84 g     F .text	0000006c _read_r
0004ebf8 g     O .rwdata	0000000c __lc_ctype
0004fe44 g     O .rwdata	00000004 alt_max_fd
0004aeb8 g     F .text	00000104 __unpack_d
00048cfc g     F .text	0000013c _fclose_r
00045e3c g     F .text	00000030 fflush
000518d8 g     O .bss	00000004 __malloc_max_sbrked_mem
00049fbc g     F .text	00000054 __adddf3
00047e78 g     F .text	00000148 __b2d
00049640 g     F .text	00000628 __umoddi3
00041230 g     F .text	00000044 read_AD
0004b58c g     F .text	000000d4 lseek
000413e8 g     F .text	00000038 init_AF
0004fe28 g     O .rwdata	00000004 _global_impure_ptr
0004831c g     F .text	000005fc _realloc_r
00051bc8 g       *ABS*	00000000 __bss_end
0004d2a8 g     F .text	000000f0 alt_iic_isr_register
0004d820 g     F .text	00000104 alt_tick
00048ff0 g     F .text	00000650 __udivdi3
0004e1bc g     O .rodata	00000028 __mprec_bigtens
000474e0 g     F .text	00000104 __s2b
00041420 g     F .text	00000044 read_AF
00041084 g     F .text	0000004c write_AB_1
0004a88c g     F .text	0000011c __floatunsidf
00047c18 g     F .text	00000058 __mcmp
00046128 g     F .text	00000018 __fp_lock_all
0004d25c g     F .text	0000004c alt_ic_irq_enabled
00040e44 g     F .text	0000001c FIFO_INIT
0004d788 g     F .text	00000098 alt_alarm_stop
00051904 g     O .bss	00000004 alt_irq_active
00041274 g     F .text	0000004c write_AD
000400ec g     F .exceptions	000000cc alt_irq_handler
0004ec04 g     O .rwdata	00000028 alt_dev_null
0004cedc g     F .text	0000001c alt_dcache_flush_all
000475e4 g     F .text	00000068 __hi0bits
0004a7b8 g     F .text	000000d4 __fixdfsi
0004be20 g     F .text	00000058 altera_avalon_fifo_write_ienable
0004fe5c g       *ABS*	00000000 __ram_rwdata_end
0004bd34 g     F .text	0000002c altera_avalon_fifo_read_almostempty
000416a0 g     F .text	00000030 readStatus_CD
0004fe3c g     O .rwdata	00000008 alt_dev_list
0004ba0c g     F .text	000000f0 write
00041844 g     F .text	0000004c write_EF
0004e3f0 g       *ABS*	00000000 __ram_rodata_end
0004b2ac g     F .text	000000b0 fstat
0004b08c g     F .text	00000044 __lshrdi3
00041328 g     F .text	00000044 read_AE
00047990 g     F .text	0000012c __pow5mult
000518ec g     O .bss	00000004 __nlocale_changed
0004aad0 g     F .text	00000008 __umodsi3
00051bc8 g       *ABS*	00000000 end
000417c8 g     F .text	00000038 init_EF
000410d0 g     F .text	00000030 readStatus_AB_1
0004c24c g     F .text	000000c0 altera_avalon_jtag_uart_init
0004bd60 g     F .text	0000003c altera_avalon_fifo_read_event
0004e01c g       *ABS*	00000000 __CTOR_LIST__
00060000 g       *ABS*	00000000 __alt_stack_pointer
0004cbc0 g     F .text	00000088 alt_avalon_timer_sc_init
0004abe8 g     F .text	000000ac __clzsi2
0004c928 g     F .text	00000224 altera_avalon_jtag_uart_write
000518cc g     O .bss	00000004 input_fifo_wrclk_irq_event
00046118 g     F .text	00000004 __sfp_lock_acquire
0004bfec g     F .text	0000004c altera_avalon_fifo_read_fifo
00046e2c g     F .text	000000f8 memchr
000423e8 g     F .text	00001e7c ___vfprintf_internal_r
00046294 g     F .text	000002d0 _free_r
0004de40 g     F .text	000001a0 __call_exitprocs
000518e8 g     O .bss	00000004 __mlocale_changed
0004fe20 g     O .rwdata	00000004 __malloc_sbrk_base
000401b8 g     F .text	0000003c _start
00051908 g     O .bss	00000004 _alt_tick_rate
00047abc g     F .text	0000015c __lshift
0005190c g     O .bss	00000004 _alt_nticks
0004b768 g     F .text	000000f4 read
0004bb68 g     F .text	00000090 alt_sys_init
0004dd10 g     F .text	00000130 __register_exitproc
00047738 g     F .text	00000258 __multiply
0004c5b4 g     F .text	00000068 altera_avalon_jtag_uart_close
000419f0 g     F .text	00000028 __mulsi3
0004e3f0 g       *ABS*	00000000 __ram_rwdata_start
0004e01c g       *ABS*	00000000 __ram_rodata_start
00051910 g     O .bss	00000028 __malloc_current_mallinfo
00047fc0 g     F .text	00000144 __d2b
00040cb4 g     F .text	0000006c INIT_B
00041890 g     F .text	00000030 readStatus_EF
0004c0e8 g     F .text	00000060 altera_avalon_jtag_uart_read_fd
0004dae8 g     F .text	000000d4 alt_get_fd
0004cd88 g     F .text	00000154 alt_busy_sleep
0004afbc g     F .text	000000d0 __fpcmp_parts_d
00048c98 g     F .text	00000064 _close_r
0004dc94 g     F .text	0000007c memcmp
0004c1a8 g     F .text	00000050 altera_avalon_jtag_uart_close_fd
00051bc8 g       *ABS*	00000000 __alt_stack_base
0004c1f8 g     F .text	00000054 altera_avalon_jtag_uart_ioctl_fd
00040e60 g     F .text	000000b4 print_status
00044288 g     F .text	00000174 __swsetup_r
0004bc90 g     F .text	0000003c altera_avalon_fifo_read_status
0004a354 g     F .text	000001b4 __divdf3
0004601c g     F .text	000000fc __sfp
0004821c g     F .text	0000007c __copybits
0004e3f0 g     O .rwdata	00000408 __malloc_av_
00046124 g     F .text	00000004 __sinit_lock_release
0004a070 g     F .text	000002e4 __muldf3
0004897c g     F .text	00000054 __sread
00041040 g     F .text	00000044 read_AB_1
0004c094 g     F .text	0000002c altera_avalon_fifo_read_other_info
0004d9d4 g     F .text	00000114 alt_find_file
0004cf48 g     F .text	000000a0 alt_dev_llist_insert
0004b6d8 g     F .text	00000020 __malloc_lock
0004b8dc g     F .text	000000b0 sbrk
00045c54 g     F .text	000001e8 _fflush_r
00048bcc g     F .text	000000cc _calloc_r
000518c8 g       *ABS*	00000000 __bss_start
000518d0 g     O .bss	00000004 data
000471f0 g     F .text	000000dc memset
00040228 g     F .text	00000034 main
000518f8 g     O .bss	00000004 alt_envp
000518d4 g     O .bss	00000004 __malloc_max_total_mem
0004c148 g     F .text	00000060 altera_avalon_jtag_uart_write_fd
0004bd9c g     F .text	00000028 altera_avalon_fifo_read_level
0004174c g     F .text	0000004c write_DE
00041800 g     F .text	00000044 read_EF
00048ab4 g     F .text	00000008 __sclose
00060000 g       *ABS*	00000000 __alt_heap_limit
00048e38 g     F .text	00000014 fclose
00041100 g     F .text	00000038 init_AB_2
00040f14 g     F .text	00000038 init_AB_0
00051a38 g     O .bss	00000190 _atexit0
00041994 g     F .text	0000005c ledBlink
00044638 g     F .text	0000161c _dtoa_r
00041a40 g     F .text	00000784 _malloc_r
0004fe48 g     O .rwdata	00000004 alt_errno
000413b8 g     F .text	00000030 readStatus_AE
00046a48 g     F .text	000000a8 _fwalk
0004aa1c g     F .text	00000050 __divsi3
0004e2b8 g     O .rodata	00000014 __thenan_df
00046158 g     F .text	0000013c _malloc_trim_r
0004e01c g       *ABS*	00000000 __CTOR_END__
00048abc g     F .text	000000a4 strcmp
000411f8 g     F .text	00000038 init_AD
0004e01c g       *ABS*	00000000 __flash_rodata_start
00041464 g     F .text	0000004c write_AF
0004e01c g       *ABS*	00000000 __DTOR_LIST__
000418c0 g     F .text	0000003c delay
0004a564 g     F .text	0000005c __nedf2
0004029c g     F .text	00000a18 DCT
00000000 g       *ABS*	00000000 __alt_mem_SDRAM_controller
0004bb34 g     F .text	00000034 alt_irq_init
0004117c g     F .text	0000004c write_AB_2
0004b85c g     F .text	00000080 alt_release_fd
0004e2cc g     O .rodata	00000100 __clz_tab
000518e4 g     O .bss	00000004 _PathLocale
00040fd8 g     F .text	00000030 readStatus_AB_0
0004dc48 g     F .text	00000014 atexit
00048b60 g     F .text	0000006c _write_r
00046c5c g     F .text	0000001c setlocale
000401f4 g     F .text	00000034 SEND
00041518 g     F .text	00000044 read_BC
0004fe2c g     O .rwdata	00000004 _impure_ptr
000518f0 g     O .bss	00000004 alt_argc
000518fc g     O .bss	00000004 altera_avalon_timer_ts_base
0004d044 g     F .text	0000005c _do_dtors
00040e24 g     F .text	00000020 READ_FIFO
00040020 g       .exceptions	00000000 alt_irq_entry
00047e18 g     F .text	00000060 __ulp
00048918 g     F .text	00000038 __isinfd
00046140 g     F .text	00000018 __fp_unlock_all
0004fe34 g     O .rwdata	00000008 alt_fs_list
000418fc g     F .text	00000098 ledUpdate
00040020 g       *ABS*	00000000 __ram_exceptions_start
00046c78 g     F .text	0000000c localeconv
0004c038 g     F .text	0000005c altera_avalon_fifo_write_other_info
0004d0d0 g     F .text	00000050 alt_ic_isr_register
000412c0 g     F .text	00000030 readStatus_AD
0004fe5c g       *ABS*	00000000 _edata
00051bc8 g       *ABS*	00000000 _end
000401b8 g       *ABS*	00000000 __ram_exceptions_end
0004c61c g     F .text	000000f4 altera_avalon_jtag_uart_ioctl
00041138 g     F .text	00000044 read_AB_2
0004d1bc g     F .text	000000a0 alt_ic_irq_disable
000489d0 g     F .text	00000088 __swrite
0004fe24 g     O .rwdata	00000004 __malloc_trim_threshold
0004d924 g     F .text	00000020 altera_nios2_qsys_irq_init
0004dc5c g     F .text	00000038 exit
00046af0 g     F .text	000000b8 _fwalk_reent
00047c70 g     F .text	000001a8 __mdiff
0004aa6c g     F .text	0000005c __modsi3
0004bccc g     F .text	0000003c altera_avalon_fifo_read_ienable
00060000 g       *ABS*	00000000 __alt_data_end
00040020 g     F .exceptions	00000000 alt_exception
0004611c g     F .text	00000004 __sfp_lock_release
00040d20 g     F .text	00000078 WRITE_B
0004dfe0 g     F .text	0000003c _exit
00048950 g     F .text	0000002c __isnand
0004cc48 g     F .text	00000140 alt_alarm_start
0004aad8 g     F .text	00000110 __muldi3
0004bd08 g     F .text	0000002c altera_avalon_fifo_read_almostfull
00046c84 g     F .text	000001a8 __smakebuf_r
00042328 g     F .text	0000008c strlen
0004d630 g     F .text	00000158 open
0004bf80 g     F .text	0000006c altera_avalon_read_fifo
0004a624 g     F .text	00000064 __gedf2
000415d8 g     F .text	00000038 init_CD
0004d0a0 g     F .text	00000030 alt_icache_flush_all
00040e04 g     F .text	00000020 WRITE_FIFO
0004fe50 g     O .rwdata	00000004 alt_priority_mask
0004d120 g     F .text	0000009c alt_ic_irq_enable
00044264 g     F .text	00000024 __vfprintf_internal
000411c8 g     F .text	00000030 readStatus_AB_2
0004155c g     F .text	0000004c write_BC
0004a010 g     F .text	00000060 __subdf3
0004764c g     F .text	000000b0 __lo0bits
0004bed0 g     F .text	00000058 altera_avalon_fifo_write_almostempty
0004fe54 g     O .rwdata	00000008 alt_alarm_list
0004cfe8 g     F .text	0000005c _do_ctors
0004b164 g     F .text	000000cc close
0004b4bc g     F .text	00000080 alt_load
0004ac94 g     F .text	00000224 __pack_d
00041a2c g     F .text	00000014 free
00046120 g     F .text	00000004 __sinit_lock_acquire
0004739c g     F .text	00000144 __multadd
00047374 g     F .text	00000028 _Bfree



Disassembly of section .entry:

00040000 <__reset>:
#if NIOS2_ICACHE_SIZE > 0 && defined(ALT_ALLOW_CODE_AT_RESET) && !defined(ALT_SIM_OPTIMIZE)
    /* Assume the instruction cache size is always a power of two. */
#if NIOS2_ICACHE_SIZE > 0x8000
    movhi r2, %hi(NIOS2_ICACHE_SIZE)
#else
    movui r2, NIOS2_ICACHE_SIZE
   40000:	00840014 	movui	r2,4096
#endif

0:
    initi r2
   40004:	1001483a 	initi	r2
    addi r2, r2, -NIOS2_ICACHE_LINE_SIZE
   40008:	10bff804 	addi	r2,r2,-32
    bgt r2, zero, 0b
   4000c:	00bffd16 	blt	zero,r2,40004 <__reset+0x4>
 * Jump to the _start entry point in the .text section if reset code
 * is allowed or if optimizing for RTL simulation.
 */
#if defined(ALT_ALLOW_CODE_AT_RESET) || defined(ALT_SIM_OPTIMIZE)
    /* Jump to the _start entry point in the .text section. */
    movhi r1, %hi(_start)
   40010:	00400134 	movhi	at,4
    ori r1, r1, %lo(_start)
   40014:	08406e14 	ori	at,at,440
    jmp r1
   40018:	0800683a 	jmp	at
   4001c:	00000000 	call	0 <__alt_mem_SDRAM_controller>

Disassembly of section .exceptions:

00040020 <alt_exception>:

#else /* ALT_EXCEPTION_STACK disabled */
        /* 
         * Reserve space on normal stack for registers about to be pushed.
         */
        addi  sp, sp, -76
   40020:	deffed04 	addi	sp,sp,-76
         * documentation for details).
         *
         * Leave a gap in the stack frame at 4(sp) for the muldiv handler to
         * store zero into.
         */
        stw   ra,  0(sp)
   40024:	dfc00015 	stw	ra,0(sp)
        stw   r1,   8(sp)
   40028:	d8400215 	stw	at,8(sp)
        stw   r2,  12(sp)
   4002c:	d8800315 	stw	r2,12(sp)
        stw   r3,  16(sp)
   40030:	d8c00415 	stw	r3,16(sp)
        stw   r4,  20(sp)
   40034:	d9000515 	stw	r4,20(sp)
        stw   r5,  24(sp)
   40038:	d9400615 	stw	r5,24(sp)
        stw   r6,  28(sp)
   4003c:	d9800715 	stw	r6,28(sp)
        stw   r7,  32(sp)
   40040:	d9c00815 	stw	r7,32(sp)
        rdctl r5, estatus   /* Read early to avoid usage stall */
   40044:	000b307a 	rdctl	r5,estatus
        stw   r8,  36(sp)
   40048:	da000915 	stw	r8,36(sp)
        stw   r9,  40(sp)
   4004c:	da400a15 	stw	r9,40(sp)
        stw   r10, 44(sp)
   40050:	da800b15 	stw	r10,44(sp)
        stw   r11, 48(sp)
   40054:	dac00c15 	stw	r11,48(sp)
        stw   r12, 52(sp)
   40058:	db000d15 	stw	r12,52(sp)
        stw   r13, 56(sp)
   4005c:	db400e15 	stw	r13,56(sp)
        stw   r14, 60(sp)
   40060:	db800f15 	stw	r14,60(sp)
        stw   r15, 64(sp)
   40064:	dbc01015 	stw	r15,64(sp)
        /*
         * ea-4 contains the address of the instruction being executed
         * when the exception occured. For interrupt exceptions, we will
         * will be re-issue the isntruction. Store it in 72(sp)
         */
        stw   r5,  68(sp)  /* estatus */
   40068:	d9401115 	stw	r5,68(sp)
        addi  r15, ea, -4  /* instruction that caused exception */
   4006c:	ebffff04 	addi	r15,ea,-4
        stw   r15,  72(sp)
   40070:	dbc01215 	stw	r15,72(sp)
#else
        /*
         * Test to see if the exception was a software exception or caused 
         * by an external interrupt, and vector accordingly.
         */
        rdctl r4, ipending
   40074:	0009313a 	rdctl	r4,ipending
        andi  r2, r5, 1
   40078:	2880004c 	andi	r2,r5,1
        beq   r2, zero, .Lnot_irq
   4007c:	10000326 	beq	r2,zero,4008c <alt_exception+0x6c>
        beq   r4, zero, .Lnot_irq
   40080:	20000226 	beq	r4,zero,4008c <alt_exception+0x6c>
        /*
         * Now that all necessary registers have been preserved, call 
         * alt_irq_handler() to process the interrupts.
         */

        call alt_irq_handler
   40084:	00400ec0 	call	400ec <alt_irq_handler>

        .section .exceptions.irqreturn, "xa"

        br    .Lexception_exit
   40088:	00000306 	br	40098 <alt_exception_unknown+0x4>
         * upon completion, so we write ea (address of instruction *after*
         * the one where the exception occured) into 72(sp). The actual
         * instruction that caused the exception is written in r2, which these
         * handlers will utilize.
         */
        stw   ea,  72(sp)  /* Don't re-issue */
   4008c:	df401215 	stw	ea,72(sp)
        ldw   r2, -4(ea)   /* Instruction that caused exception */
   40090:	e8bfff17 	ldw	r2,-4(ea)

00040094 <alt_exception_unknown>:
#ifdef NIOS2_HAS_DEBUG_STUB
       /*
        *  Either tell the user now (if there is a debugger attached) or go into
        *  the debug monitor which will loop until a debugger is attached.
        */
        break
   40094:	003da03a 	break	0
        /* 
         * Restore the saved registers, so that all general purpose registers 
         * have been restored to their state at the time the interrupt occured.
         */

        ldw   r5,  68(sp)
   40098:	d9401117 	ldw	r5,68(sp)
        ldw   ea,  72(sp)  /* This becomes the PC once eret is executed */
   4009c:	df401217 	ldw	ea,72(sp)
        ldw   ra,   0(sp)
   400a0:	dfc00017 	ldw	ra,0(sp)

        wrctl estatus, r5
   400a4:	2801707a 	wrctl	estatus,r5

        ldw   r1,   8(sp)
   400a8:	d8400217 	ldw	at,8(sp)
        ldw   r2,  12(sp)
   400ac:	d8800317 	ldw	r2,12(sp)
        ldw   r3,  16(sp)
   400b0:	d8c00417 	ldw	r3,16(sp)
        ldw   r4,  20(sp)
   400b4:	d9000517 	ldw	r4,20(sp)
        ldw   r5,  24(sp)
   400b8:	d9400617 	ldw	r5,24(sp)
        ldw   r6,  28(sp)
   400bc:	d9800717 	ldw	r6,28(sp)
        ldw   r7,  32(sp)
   400c0:	d9c00817 	ldw	r7,32(sp)

#if defined(ALT_EXCEPTION_STACK) && defined(ALT_STACK_CHECK)
        ldw   et, %gprel(alt_exception_old_stack_limit)(gp)
#endif

        ldw   r8,  36(sp)
   400c4:	da000917 	ldw	r8,36(sp)
        ldw   r9,  40(sp)
   400c8:	da400a17 	ldw	r9,40(sp)
        ldw   r10, 44(sp)
   400cc:	da800b17 	ldw	r10,44(sp)
        ldw   r11, 48(sp)
   400d0:	dac00c17 	ldw	r11,48(sp)
        ldw   r12, 52(sp)
   400d4:	db000d17 	ldw	r12,52(sp)
        ldw   r13, 56(sp)
   400d8:	db400e17 	ldw	r13,56(sp)
        ldw   r14, 60(sp)
   400dc:	db800f17 	ldw	r14,60(sp)
        ldw   r15, 64(sp)
   400e0:	dbc01017 	ldw	r15,64(sp)
        stw   et, %gprel(alt_stack_limit_value)(gp)
        stw   zero, %gprel(alt_exception_old_stack_limit)(gp)
#endif /* ALT_STACK_CHECK */
        ldw   sp,  76(sp)
#else /* ALT_EXCEPTION_STACK disabled */
        addi  sp, sp, 76
   400e4:	dec01304 	addi	sp,sp,76

        /*
         * Return to the interrupted instruction.
         */

        eret
   400e8:	ef80083a 	eret

000400ec <alt_irq_handler>:
 * instruction is present if the macro ALT_CI_INTERRUPT_VECTOR defined.
 */

void alt_irq_handler (void) __attribute__ ((section (".exceptions")));
void alt_irq_handler (void)
{
   400ec:	defff904 	addi	sp,sp,-28
   400f0:	dfc00615 	stw	ra,24(sp)
   400f4:	df000515 	stw	fp,20(sp)
   400f8:	df000504 	addi	fp,sp,20
  
  /*
   * Notify the operating system that we are at interrupt level.
   */ 
  
  ALT_OS_INT_ENTER();
   400fc:	0001883a 	nop
#ifndef NIOS2_EIC_PRESENT
static ALT_INLINE alt_u32 ALT_ALWAYS_INLINE alt_irq_pending (void)
{
  alt_u32 active;

  NIOS2_READ_IPENDING (active);
   40100:	0005313a 	rdctl	r2,ipending
   40104:	e0bffe15 	stw	r2,-8(fp)

  return active;
   40108:	e0bffe17 	ldw	r2,-8(fp)
   * Consider the case where the high priority interupt is asserted during
   * the interrupt entry sequence for a lower priority interrupt to see why
   * this is the case.
   */

  active = alt_irq_pending ();
   4010c:	e0bffb15 	stw	r2,-20(fp)

  do
  {
    i = 0;
   40110:	e03ffd15 	stw	zero,-12(fp)
    mask = 1;
   40114:	00800044 	movi	r2,1
   40118:	e0bffc15 	stw	r2,-16(fp)
     * called to clear the interrupt condition.
     */

    do
    {
      if (active & mask)
   4011c:	e0fffb17 	ldw	r3,-20(fp)
   40120:	e0bffc17 	ldw	r2,-16(fp)
   40124:	1884703a 	and	r2,r3,r2
   40128:	10001726 	beq	r2,zero,40188 <alt_irq_handler+0x9c>
      { 
#ifdef ALT_ENHANCED_INTERRUPT_API_PRESENT
        alt_irq[i].handler(alt_irq[i].context); 
   4012c:	00c00174 	movhi	r3,5
   40130:	18c64e04 	addi	r3,r3,6456
   40134:	e0bffd17 	ldw	r2,-12(fp)
   40138:	100490fa 	slli	r2,r2,3
   4013c:	1885883a 	add	r2,r3,r2
   40140:	10c00017 	ldw	r3,0(r2)
   40144:	01000174 	movhi	r4,5
   40148:	21064e04 	addi	r4,r4,6456
   4014c:	e0bffd17 	ldw	r2,-12(fp)
   40150:	100490fa 	slli	r2,r2,3
   40154:	2085883a 	add	r2,r4,r2
   40158:	10800104 	addi	r2,r2,4
   4015c:	10800017 	ldw	r2,0(r2)
   40160:	1009883a 	mov	r4,r2
   40164:	183ee83a 	callr	r3
#else
        alt_irq[i].handler(alt_irq[i].context, i); 
#endif
        break;
   40168:	0001883a 	nop
#ifndef NIOS2_EIC_PRESENT
static ALT_INLINE alt_u32 ALT_ALWAYS_INLINE alt_irq_pending (void)
{
  alt_u32 active;

  NIOS2_READ_IPENDING (active);
   4016c:	0005313a 	rdctl	r2,ipending
   40170:	e0bfff15 	stw	r2,-4(fp)

  return active;
   40174:	e0bfff17 	ldw	r2,-4(fp)
      mask <<= 1;
      i++;

    } while (1);

    active = alt_irq_pending ();
   40178:	e0bffb15 	stw	r2,-20(fp)
    
  } while (active);
   4017c:	e0bffb17 	ldw	r2,-20(fp)
   40180:	103fe31e 	bne	r2,zero,40110 <alt_irq_handler+0x24>

  /*
   * Notify the operating system that interrupt processing is complete.
   */ 

  ALT_OS_INT_EXIT();
   40184:	00000706 	br	401a4 <alt_irq_handler+0xb8>
#else
        alt_irq[i].handler(alt_irq[i].context, i); 
#endif
        break;
      }
      mask <<= 1;
   40188:	e0bffc17 	ldw	r2,-16(fp)
   4018c:	1085883a 	add	r2,r2,r2
   40190:	e0bffc15 	stw	r2,-16(fp)
      i++;
   40194:	e0bffd17 	ldw	r2,-12(fp)
   40198:	10800044 	addi	r2,r2,1
   4019c:	e0bffd15 	stw	r2,-12(fp)

    } while (1);
   401a0:	003fde06 	br	4011c <alt_irq_handler+0x30>
  /*
   * Notify the operating system that interrupt processing is complete.
   */ 

  ALT_OS_INT_EXIT();
}
   401a4:	e037883a 	mov	sp,fp
   401a8:	dfc00117 	ldw	ra,4(sp)
   401ac:	df000017 	ldw	fp,0(sp)
   401b0:	dec00204 	addi	sp,sp,8
   401b4:	f800283a 	ret

Disassembly of section .text:

000401b8 <_start>:

    /*
     * Now that the caches are initialized, set up the stack pointer and global pointer.
     * The values provided by the linker are assumed to be correctly aligned.
     */
    movhi sp, %hi(__alt_stack_pointer)
   401b8:	06c001b4 	movhi	sp,6
    ori sp, sp, %lo(__alt_stack_pointer)
   401bc:	dec00014 	ori	sp,sp,0
    movhi gp, %hi(_gp)
   401c0:	06800174 	movhi	gp,5
    ori gp, gp, %lo(_gp)
   401c4:	d69f8314 	ori	gp,gp,32268
 */
#ifndef ALT_SIM_OPTIMIZE
    /* Log that the BSS is about to be cleared. */
    ALT_LOG_PUTS(alt_log_msg_bss)

    movhi r2, %hi(__bss_start)
   401c8:	00800174 	movhi	r2,5
    ori r2, r2, %lo(__bss_start)
   401cc:	10863214 	ori	r2,r2,6344

    movhi r3, %hi(__bss_end)
   401d0:	00c00174 	movhi	r3,5
    ori r3, r3, %lo(__bss_end)
   401d4:	18c6f214 	ori	r3,r3,7112

    beq r2, r3, 1f
   401d8:	10c00326 	beq	r2,r3,401e8 <_start+0x30>

0:
    stw zero, (r2)
   401dc:	10000015 	stw	zero,0(r2)
    addi r2, r2, 4
   401e0:	10800104 	addi	r2,r2,4
    bltu r2, r3, 0b
   401e4:	10fffd36 	bltu	r2,r3,401dc <_start+0x24>
     * section aren't defined until alt_load() has been called).
     */
    mov   et, zero
#endif

    call alt_load
   401e8:	004b4bc0 	call	4b4bc <alt_load>

    /* Log that alt_main is about to be called. */
    ALT_LOG_PUTS(alt_log_msg_alt_main)

    /* Call the C entry point. It should never return. */
    call alt_main
   401ec:	004b6600 	call	4b660 <alt_main>

000401f0 <alt_after_alt_main>:

    /* Wait in infinite loop in case alt_main does return. */
alt_after_alt_main:
    br alt_after_alt_main
   401f0:	003fff06 	br	401f0 <alt_after_alt_main>

000401f4 <SEND>:
int *data;

void processLoop();
void DCT(uint8_t round);

void SEND(int16_t val){
   401f4:	defffd04 	addi	sp,sp,-12
   401f8:	dfc00215 	stw	ra,8(sp)
   401fc:	df000115 	stw	fp,4(sp)
   40200:	df000104 	addi	fp,sp,4
   40204:	2005883a 	mov	r2,r4
   40208:	e0bfff0d 	sth	r2,-4(fp)
	write_CD(&val);
   4020c:	e13fff04 	addi	r4,fp,-4
   40210:	00416540 	call	41654 <write_CD>
}
   40214:	e037883a 	mov	sp,fp
   40218:	dfc00117 	ldw	ra,4(sp)
   4021c:	df000017 	ldw	fp,0(sp)
   40220:	dec00204 	addi	sp,sp,8
   40224:	f800283a 	ret

00040228 <main>:

int main(void){
   40228:	defffe04 	addi	sp,sp,-8
   4022c:	dfc00115 	stw	ra,4(sp)
   40230:	df000015 	stw	fp,0(sp)
   40234:	d839883a 	mov	fp,sp

	printf("Hardware JSoC_C begins\n\n");
   40238:	01000174 	movhi	r4,5
   4023c:	21380704 	addi	r4,r4,-8164
   40240:	00422b00 	call	422b0 <puts>

	init_BC();
   40244:	00414e00 	call	414e0 <init_BC>
	init_CD();
   40248:	00415d80 	call	415d8 <init_CD>

	ledBlink(3);
   4024c:	010000c4 	movi	r4,3
   40250:	00419940 	call	41994 <ledBlink>

	while(1){
		processLoop();
   40254:	004025c0 	call	4025c <processLoop>
	}
   40258:	003ffe06 	br	40254 <main+0x2c>

0004025c <processLoop>:

	return 0;
}

void processLoop(){
   4025c:	defffe04 	addi	sp,sp,-8
   40260:	dfc00115 	stw	ra,4(sp)
   40264:	df000015 	stw	fp,0(sp)
   40268:	d839883a 	mov	fp,sp

	data = (int16_t*)malloc(sizeof(int16_t)*64);
   4026c:	01002004 	movi	r4,128
   40270:	0041a180 	call	41a18 <malloc>
   40274:	d0a6b115 	stw	r2,-25916(gp)

	while(1){
		DCT(0);
   40278:	0009883a 	mov	r4,zero
   4027c:	004029c0 	call	4029c <DCT>
		DCT(1);
   40280:	01000044 	movi	r4,1
   40284:	004029c0 	call	4029c <DCT>
		DCT(2);
   40288:	01000084 	movi	r4,2
   4028c:	004029c0 	call	4029c <DCT>
		ledBlink(3);
   40290:	010000c4 	movi	r4,3
   40294:	00419940 	call	41994 <ledBlink>
	}
   40298:	003ff706 	br	40278 <processLoop+0x1c>

0004029c <DCT>:
}

/* DCT for One block(8x8) */
void DCT(uint8_t round){
   4029c:	defff104 	addi	sp,sp,-60
   402a0:	dfc00e15 	stw	ra,56(sp)
   402a4:	df000d15 	stw	fp,52(sp)
   402a8:	dc400c15 	stw	r17,48(sp)
   402ac:	dc000b15 	stw	r16,44(sp)
   402b0:	df000b04 	addi	fp,sp,44
   402b4:	2005883a 	mov	r2,r4
   402b8:	e0bfff05 	stb	r2,-4(fp)
	static const uint16_t s1=3;
	static const uint16_t s2=10;
	static const uint16_t s3=13;

	/* read back from queue */
	for (i=0; i<64; i++){
   402bc:	e03ff50d 	sth	zero,-44(fp)
   402c0:	00001a06 	br	4032c <DCT+0x90>
		data[i] = (int16_t)read_BC();
   402c4:	d0e6b117 	ldw	r3,-25916(gp)
   402c8:	e0bff50b 	ldhu	r2,-44(fp)
   402cc:	1085883a 	add	r2,r2,r2
   402d0:	1085883a 	add	r2,r2,r2
   402d4:	18a1883a 	add	r16,r3,r2
   402d8:	00415180 	call	41518 <read_BC>
   402dc:	10bfffcc 	andi	r2,r2,65535
   402e0:	10a0001c 	xori	r2,r2,32768
   402e4:	10a00004 	addi	r2,r2,-32768
   402e8:	80800015 	stw	r2,0(r16)
		printf("%d | %d -> %d\n", round, i, data[i]);
   402ec:	e17fff03 	ldbu	r5,-4(fp)
   402f0:	e0fff50b 	ldhu	r3,-44(fp)
   402f4:	d126b117 	ldw	r4,-25916(gp)
   402f8:	e0bff50b 	ldhu	r2,-44(fp)
   402fc:	1085883a 	add	r2,r2,r2
   40300:	1085883a 	add	r2,r2,r2
   40304:	2085883a 	add	r2,r4,r2
   40308:	10800017 	ldw	r2,0(r2)
   4030c:	01000174 	movhi	r4,5
   40310:	21380d04 	addi	r4,r4,-8140
   40314:	180d883a 	mov	r6,r3
   40318:	100f883a 	mov	r7,r2
   4031c:	00421f00 	call	421f0 <printf>
	static const uint16_t s1=3;
	static const uint16_t s2=10;
	static const uint16_t s3=13;

	/* read back from queue */
	for (i=0; i<64; i++){
   40320:	e0bff50b 	ldhu	r2,-44(fp)
   40324:	10800044 	addi	r2,r2,1
   40328:	e0bff50d 	sth	r2,-44(fp)
   4032c:	e0bff50b 	ldhu	r2,-44(fp)
   40330:	10801030 	cmpltui	r2,r2,64
   40334:	103fe31e 	bne	r2,zero,402c4 <DCT+0x28>
		data[i] = (int16_t)read_BC();
		printf("%d | %d -> %d\n", round, i, data[i]);
	}
	//ledBlink(3);

	for (i=8; i>0; i--){
   40338:	00800204 	movi	r2,8
   4033c:	e0bff50d 	sth	r2,-44(fp)
   40340:	00011506 	br	40798 <DCT+0x4fc>
		x8 = data[0] + data[7];
   40344:	d0a6b117 	ldw	r2,-25916(gp)
   40348:	10c00017 	ldw	r3,0(r2)
   4034c:	d0a6b117 	ldw	r2,-25916(gp)
   40350:	10800704 	addi	r2,r2,28
   40354:	10800017 	ldw	r2,0(r2)
   40358:	1885883a 	add	r2,r3,r2
   4035c:	e0bff615 	stw	r2,-40(fp)
		x0 = data[0] - data[7];
   40360:	d0a6b117 	ldw	r2,-25916(gp)
   40364:	10c00017 	ldw	r3,0(r2)
   40368:	d0a6b117 	ldw	r2,-25916(gp)
   4036c:	10800704 	addi	r2,r2,28
   40370:	10800017 	ldw	r2,0(r2)
   40374:	1885c83a 	sub	r2,r3,r2
   40378:	e0bff715 	stw	r2,-36(fp)

		x7 = data[1] + data[6];
   4037c:	d0a6b117 	ldw	r2,-25916(gp)
   40380:	10800104 	addi	r2,r2,4
   40384:	10c00017 	ldw	r3,0(r2)
   40388:	d0a6b117 	ldw	r2,-25916(gp)
   4038c:	10800604 	addi	r2,r2,24
   40390:	10800017 	ldw	r2,0(r2)
   40394:	1885883a 	add	r2,r3,r2
   40398:	e0bff815 	stw	r2,-32(fp)
		x1 = data[1] - data[6];
   4039c:	d0a6b117 	ldw	r2,-25916(gp)
   403a0:	10800104 	addi	r2,r2,4
   403a4:	10c00017 	ldw	r3,0(r2)
   403a8:	d0a6b117 	ldw	r2,-25916(gp)
   403ac:	10800604 	addi	r2,r2,24
   403b0:	10800017 	ldw	r2,0(r2)
   403b4:	1885c83a 	sub	r2,r3,r2
   403b8:	e0bff915 	stw	r2,-28(fp)

		x6 = data[2] + data[5];
   403bc:	d0a6b117 	ldw	r2,-25916(gp)
   403c0:	10800204 	addi	r2,r2,8
   403c4:	10c00017 	ldw	r3,0(r2)
   403c8:	d0a6b117 	ldw	r2,-25916(gp)
   403cc:	10800504 	addi	r2,r2,20
   403d0:	10800017 	ldw	r2,0(r2)
   403d4:	1885883a 	add	r2,r3,r2
   403d8:	e0bffa15 	stw	r2,-24(fp)
		x2 = data[2] - data[5];
   403dc:	d0a6b117 	ldw	r2,-25916(gp)
   403e0:	10800204 	addi	r2,r2,8
   403e4:	10c00017 	ldw	r3,0(r2)
   403e8:	d0a6b117 	ldw	r2,-25916(gp)
   403ec:	10800504 	addi	r2,r2,20
   403f0:	10800017 	ldw	r2,0(r2)
   403f4:	1885c83a 	sub	r2,r3,r2
   403f8:	e0bffb15 	stw	r2,-20(fp)

		x5 = data[3] + data[4];
   403fc:	d0a6b117 	ldw	r2,-25916(gp)
   40400:	10800304 	addi	r2,r2,12
   40404:	10c00017 	ldw	r3,0(r2)
   40408:	d0a6b117 	ldw	r2,-25916(gp)
   4040c:	10800404 	addi	r2,r2,16
   40410:	10800017 	ldw	r2,0(r2)
   40414:	1885883a 	add	r2,r3,r2
   40418:	e0bffc15 	stw	r2,-16(fp)
		x3 = data[3] - data[4];
   4041c:	d0a6b117 	ldw	r2,-25916(gp)
   40420:	10800304 	addi	r2,r2,12
   40424:	10c00017 	ldw	r3,0(r2)
   40428:	d0a6b117 	ldw	r2,-25916(gp)
   4042c:	10800404 	addi	r2,r2,16
   40430:	10800017 	ldw	r2,0(r2)
   40434:	1885c83a 	sub	r2,r3,r2
   40438:	e0bffd15 	stw	r2,-12(fp)

		x4 = x8 + x5;
   4043c:	e0fff617 	ldw	r3,-40(fp)
   40440:	e0bffc17 	ldw	r2,-16(fp)
   40444:	1885883a 	add	r2,r3,r2
   40448:	e0bffe15 	stw	r2,-8(fp)
		x8 -= x5;
   4044c:	e0fff617 	ldw	r3,-40(fp)
   40450:	e0bffc17 	ldw	r2,-16(fp)
   40454:	1885c83a 	sub	r2,r3,r2
   40458:	e0bff615 	stw	r2,-40(fp)

		x5 = x7 + x6;
   4045c:	e0fff817 	ldw	r3,-32(fp)
   40460:	e0bffa17 	ldw	r2,-24(fp)
   40464:	1885883a 	add	r2,r3,r2
   40468:	e0bffc15 	stw	r2,-16(fp)
		x7 -= x6;
   4046c:	e0fff817 	ldw	r3,-32(fp)
   40470:	e0bffa17 	ldw	r2,-24(fp)
   40474:	1885c83a 	sub	r2,r3,r2
   40478:	e0bff815 	stw	r2,-32(fp)

		data[0] = (int16_t) (x4 + x5);
   4047c:	d0a6b117 	ldw	r2,-25916(gp)
   40480:	e0fffe17 	ldw	r3,-8(fp)
   40484:	1809883a 	mov	r4,r3
   40488:	e0fffc17 	ldw	r3,-16(fp)
   4048c:	20c7883a 	add	r3,r4,r3
   40490:	18ffffcc 	andi	r3,r3,65535
   40494:	18e0001c 	xori	r3,r3,32768
   40498:	18e00004 	addi	r3,r3,-32768
   4049c:	10c00015 	stw	r3,0(r2)
		data[4] = (int16_t) (x4 - x5);
   404a0:	d0a6b117 	ldw	r2,-25916(gp)
   404a4:	10800404 	addi	r2,r2,16
   404a8:	e0fffe17 	ldw	r3,-8(fp)
   404ac:	1809883a 	mov	r4,r3
   404b0:	e0fffc17 	ldw	r3,-16(fp)
   404b4:	20c7c83a 	sub	r3,r4,r3
   404b8:	18ffffcc 	andi	r3,r3,65535
   404bc:	18e0001c 	xori	r3,r3,32768
   404c0:	18e00004 	addi	r3,r3,-32768
   404c4:	10c00015 	stw	r3,0(r2)

		data[2] = (int16_t) ((x8*c2 + x7*c6) >> s2);
   404c8:	d0a6b117 	ldw	r2,-25916(gp)
   404cc:	14000204 	addi	r16,r2,8
   404d0:	d0a0000b 	ldhu	r2,-32768(gp)
   404d4:	10bfffcc 	andi	r2,r2,65535
   404d8:	1009883a 	mov	r4,r2
   404dc:	e17ff617 	ldw	r5,-40(fp)
   404e0:	00419f00 	call	419f0 <__mulsi3>
   404e4:	1023883a 	mov	r17,r2
   404e8:	d0a0008b 	ldhu	r2,-32766(gp)
   404ec:	10bfffcc 	andi	r2,r2,65535
   404f0:	1009883a 	mov	r4,r2
   404f4:	e17ff817 	ldw	r5,-32(fp)
   404f8:	00419f00 	call	419f0 <__mulsi3>
   404fc:	8887883a 	add	r3,r17,r2
   40500:	d0a0010b 	ldhu	r2,-32764(gp)
   40504:	10bfffcc 	andi	r2,r2,65535
   40508:	1885d83a 	sra	r2,r3,r2
   4050c:	10bfffcc 	andi	r2,r2,65535
   40510:	10a0001c 	xori	r2,r2,32768
   40514:	10a00004 	addi	r2,r2,-32768
   40518:	80800015 	stw	r2,0(r16)
		data[6] = (int16_t) ((x8*c6 - x7*c2) >> s2);
   4051c:	d0a6b117 	ldw	r2,-25916(gp)
   40520:	14000604 	addi	r16,r2,24
   40524:	d0a0008b 	ldhu	r2,-32766(gp)
   40528:	10bfffcc 	andi	r2,r2,65535
   4052c:	1009883a 	mov	r4,r2
   40530:	e17ff617 	ldw	r5,-40(fp)
   40534:	00419f00 	call	419f0 <__mulsi3>
   40538:	1023883a 	mov	r17,r2
   4053c:	d0a0000b 	ldhu	r2,-32768(gp)
   40540:	10bfffcc 	andi	r2,r2,65535
   40544:	1009883a 	mov	r4,r2
   40548:	e17ff817 	ldw	r5,-32(fp)
   4054c:	00419f00 	call	419f0 <__mulsi3>
   40550:	8887c83a 	sub	r3,r17,r2
   40554:	d0a0010b 	ldhu	r2,-32764(gp)
   40558:	10bfffcc 	andi	r2,r2,65535
   4055c:	1885d83a 	sra	r2,r3,r2
   40560:	10bfffcc 	andi	r2,r2,65535
   40564:	10a0001c 	xori	r2,r2,32768
   40568:	10a00004 	addi	r2,r2,-32768
   4056c:	80800015 	stw	r2,0(r16)

		data[7] = (int16_t) ((x0*c7 - x1*c5 + x2*c3 - x3*c1) >> s2);
   40570:	d0a6b117 	ldw	r2,-25916(gp)
   40574:	14000704 	addi	r16,r2,28
   40578:	d0a0018b 	ldhu	r2,-32762(gp)
   4057c:	10bfffcc 	andi	r2,r2,65535
   40580:	1009883a 	mov	r4,r2
   40584:	e17ff717 	ldw	r5,-36(fp)
   40588:	00419f00 	call	419f0 <__mulsi3>
   4058c:	1023883a 	mov	r17,r2
   40590:	d0a0020b 	ldhu	r2,-32760(gp)
   40594:	10bfffcc 	andi	r2,r2,65535
   40598:	1009883a 	mov	r4,r2
   4059c:	e17ff917 	ldw	r5,-28(fp)
   405a0:	00419f00 	call	419f0 <__mulsi3>
   405a4:	88a3c83a 	sub	r17,r17,r2
   405a8:	d0a0028b 	ldhu	r2,-32758(gp)
   405ac:	10bfffcc 	andi	r2,r2,65535
   405b0:	1009883a 	mov	r4,r2
   405b4:	e17ffb17 	ldw	r5,-20(fp)
   405b8:	00419f00 	call	419f0 <__mulsi3>
   405bc:	88a3883a 	add	r17,r17,r2
   405c0:	d0a0030b 	ldhu	r2,-32756(gp)
   405c4:	10bfffcc 	andi	r2,r2,65535
   405c8:	1009883a 	mov	r4,r2
   405cc:	e17ffd17 	ldw	r5,-12(fp)
   405d0:	00419f00 	call	419f0 <__mulsi3>
   405d4:	8887c83a 	sub	r3,r17,r2
   405d8:	d0a0010b 	ldhu	r2,-32764(gp)
   405dc:	10bfffcc 	andi	r2,r2,65535
   405e0:	1885d83a 	sra	r2,r3,r2
   405e4:	10bfffcc 	andi	r2,r2,65535
   405e8:	10a0001c 	xori	r2,r2,32768
   405ec:	10a00004 	addi	r2,r2,-32768
   405f0:	80800015 	stw	r2,0(r16)
		data[5] = (int16_t) ((x0*c5 - x1*c1 + x2*c7 + x3*c3) >> s2);
   405f4:	d0a6b117 	ldw	r2,-25916(gp)
   405f8:	14000504 	addi	r16,r2,20
   405fc:	d0a0020b 	ldhu	r2,-32760(gp)
   40600:	10bfffcc 	andi	r2,r2,65535
   40604:	1009883a 	mov	r4,r2
   40608:	e17ff717 	ldw	r5,-36(fp)
   4060c:	00419f00 	call	419f0 <__mulsi3>
   40610:	1023883a 	mov	r17,r2
   40614:	d0a0030b 	ldhu	r2,-32756(gp)
   40618:	10bfffcc 	andi	r2,r2,65535
   4061c:	1009883a 	mov	r4,r2
   40620:	e17ff917 	ldw	r5,-28(fp)
   40624:	00419f00 	call	419f0 <__mulsi3>
   40628:	88a3c83a 	sub	r17,r17,r2
   4062c:	d0a0018b 	ldhu	r2,-32762(gp)
   40630:	10bfffcc 	andi	r2,r2,65535
   40634:	1009883a 	mov	r4,r2
   40638:	e17ffb17 	ldw	r5,-20(fp)
   4063c:	00419f00 	call	419f0 <__mulsi3>
   40640:	88a3883a 	add	r17,r17,r2
   40644:	d0a0028b 	ldhu	r2,-32758(gp)
   40648:	10bfffcc 	andi	r2,r2,65535
   4064c:	1009883a 	mov	r4,r2
   40650:	e17ffd17 	ldw	r5,-12(fp)
   40654:	00419f00 	call	419f0 <__mulsi3>
   40658:	8887883a 	add	r3,r17,r2
   4065c:	d0a0010b 	ldhu	r2,-32764(gp)
   40660:	10bfffcc 	andi	r2,r2,65535
   40664:	1885d83a 	sra	r2,r3,r2
   40668:	10bfffcc 	andi	r2,r2,65535
   4066c:	10a0001c 	xori	r2,r2,32768
   40670:	10a00004 	addi	r2,r2,-32768
   40674:	80800015 	stw	r2,0(r16)
		data[3] = (int16_t) ((x0*c3 - x1*c7 - x2*c1 - x3*c5) >> s2);
   40678:	d0a6b117 	ldw	r2,-25916(gp)
   4067c:	14000304 	addi	r16,r2,12
   40680:	d0a0028b 	ldhu	r2,-32758(gp)
   40684:	10bfffcc 	andi	r2,r2,65535
   40688:	1009883a 	mov	r4,r2
   4068c:	e17ff717 	ldw	r5,-36(fp)
   40690:	00419f00 	call	419f0 <__mulsi3>
   40694:	1023883a 	mov	r17,r2
   40698:	d0a0018b 	ldhu	r2,-32762(gp)
   4069c:	10bfffcc 	andi	r2,r2,65535
   406a0:	1009883a 	mov	r4,r2
   406a4:	e17ff917 	ldw	r5,-28(fp)
   406a8:	00419f00 	call	419f0 <__mulsi3>
   406ac:	88a3c83a 	sub	r17,r17,r2
   406b0:	d0a0030b 	ldhu	r2,-32756(gp)
   406b4:	10bfffcc 	andi	r2,r2,65535
   406b8:	1009883a 	mov	r4,r2
   406bc:	e17ffb17 	ldw	r5,-20(fp)
   406c0:	00419f00 	call	419f0 <__mulsi3>
   406c4:	88a3c83a 	sub	r17,r17,r2
   406c8:	d0a0020b 	ldhu	r2,-32760(gp)
   406cc:	10bfffcc 	andi	r2,r2,65535
   406d0:	1009883a 	mov	r4,r2
   406d4:	e17ffd17 	ldw	r5,-12(fp)
   406d8:	00419f00 	call	419f0 <__mulsi3>
   406dc:	8887c83a 	sub	r3,r17,r2
   406e0:	d0a0010b 	ldhu	r2,-32764(gp)
   406e4:	10bfffcc 	andi	r2,r2,65535
   406e8:	1885d83a 	sra	r2,r3,r2
   406ec:	10bfffcc 	andi	r2,r2,65535
   406f0:	10a0001c 	xori	r2,r2,32768
   406f4:	10a00004 	addi	r2,r2,-32768
   406f8:	80800015 	stw	r2,0(r16)
		data[1] = (int16_t) ((x0*c1 + x1*c3 + x2*c5 + x3*c7) >> s2);
   406fc:	d0a6b117 	ldw	r2,-25916(gp)
   40700:	14000104 	addi	r16,r2,4
   40704:	d0a0030b 	ldhu	r2,-32756(gp)
   40708:	10bfffcc 	andi	r2,r2,65535
   4070c:	1009883a 	mov	r4,r2
   40710:	e17ff717 	ldw	r5,-36(fp)
   40714:	00419f00 	call	419f0 <__mulsi3>
   40718:	1023883a 	mov	r17,r2
   4071c:	d0a0028b 	ldhu	r2,-32758(gp)
   40720:	10bfffcc 	andi	r2,r2,65535
   40724:	1009883a 	mov	r4,r2
   40728:	e17ff917 	ldw	r5,-28(fp)
   4072c:	00419f00 	call	419f0 <__mulsi3>
   40730:	88a3883a 	add	r17,r17,r2
   40734:	d0a0020b 	ldhu	r2,-32760(gp)
   40738:	10bfffcc 	andi	r2,r2,65535
   4073c:	1009883a 	mov	r4,r2
   40740:	e17ffb17 	ldw	r5,-20(fp)
   40744:	00419f00 	call	419f0 <__mulsi3>
   40748:	88a3883a 	add	r17,r17,r2
   4074c:	d0a0018b 	ldhu	r2,-32762(gp)
   40750:	10bfffcc 	andi	r2,r2,65535
   40754:	1009883a 	mov	r4,r2
   40758:	e17ffd17 	ldw	r5,-12(fp)
   4075c:	00419f00 	call	419f0 <__mulsi3>
   40760:	8887883a 	add	r3,r17,r2
   40764:	d0a0010b 	ldhu	r2,-32764(gp)
   40768:	10bfffcc 	andi	r2,r2,65535
   4076c:	1885d83a 	sra	r2,r3,r2
   40770:	10bfffcc 	andi	r2,r2,65535
   40774:	10a0001c 	xori	r2,r2,32768
   40778:	10a00004 	addi	r2,r2,-32768
   4077c:	80800015 	stw	r2,0(r16)

		data += 8;
   40780:	d0a6b117 	ldw	r2,-25916(gp)
   40784:	10800804 	addi	r2,r2,32
   40788:	d0a6b115 	stw	r2,-25916(gp)
		data[i] = (int16_t)read_BC();
		printf("%d | %d -> %d\n", round, i, data[i]);
	}
	//ledBlink(3);

	for (i=8; i>0; i--){
   4078c:	e0bff50b 	ldhu	r2,-44(fp)
   40790:	10bfffc4 	addi	r2,r2,-1
   40794:	e0bff50d 	sth	r2,-44(fp)
   40798:	e0bff50b 	ldhu	r2,-44(fp)
   4079c:	103ee91e 	bne	r2,zero,40344 <DCT+0xa8>
		data[3] = (int16_t) ((x0*c3 - x1*c7 - x2*c1 - x3*c5) >> s2);
		data[1] = (int16_t) ((x0*c1 + x1*c3 + x2*c5 + x3*c7) >> s2);

		data += 8;
	}
	data -= 64;
   407a0:	d0a6b117 	ldw	r2,-25916(gp)
   407a4:	10bfc004 	addi	r2,r2,-256
   407a8:	d0a6b115 	stw	r2,-25916(gp)

	for (i=8; i>0; i--){
   407ac:	00800204 	movi	r2,8
   407b0:	e0bff50d 	sth	r2,-44(fp)
   407b4:	00011906 	br	40c1c <DCT+0x980>
		x8 = data[0] + data[56];
   407b8:	d0a6b117 	ldw	r2,-25916(gp)
   407bc:	10c00017 	ldw	r3,0(r2)
   407c0:	d0a6b117 	ldw	r2,-25916(gp)
   407c4:	10803804 	addi	r2,r2,224
   407c8:	10800017 	ldw	r2,0(r2)
   407cc:	1885883a 	add	r2,r3,r2
   407d0:	e0bff615 	stw	r2,-40(fp)
		x0 = data[0] - data[56];
   407d4:	d0a6b117 	ldw	r2,-25916(gp)
   407d8:	10c00017 	ldw	r3,0(r2)
   407dc:	d0a6b117 	ldw	r2,-25916(gp)
   407e0:	10803804 	addi	r2,r2,224
   407e4:	10800017 	ldw	r2,0(r2)
   407e8:	1885c83a 	sub	r2,r3,r2
   407ec:	e0bff715 	stw	r2,-36(fp)

		x7 = data[8] + data[48];
   407f0:	d0a6b117 	ldw	r2,-25916(gp)
   407f4:	10800804 	addi	r2,r2,32
   407f8:	10c00017 	ldw	r3,0(r2)
   407fc:	d0a6b117 	ldw	r2,-25916(gp)
   40800:	10803004 	addi	r2,r2,192
   40804:	10800017 	ldw	r2,0(r2)
   40808:	1885883a 	add	r2,r3,r2
   4080c:	e0bff815 	stw	r2,-32(fp)
		x1 = data[8] - data[48];
   40810:	d0a6b117 	ldw	r2,-25916(gp)
   40814:	10800804 	addi	r2,r2,32
   40818:	10c00017 	ldw	r3,0(r2)
   4081c:	d0a6b117 	ldw	r2,-25916(gp)
   40820:	10803004 	addi	r2,r2,192
   40824:	10800017 	ldw	r2,0(r2)
   40828:	1885c83a 	sub	r2,r3,r2
   4082c:	e0bff915 	stw	r2,-28(fp)

		x6 = data[16] + data[40];
   40830:	d0a6b117 	ldw	r2,-25916(gp)
   40834:	10801004 	addi	r2,r2,64
   40838:	10c00017 	ldw	r3,0(r2)
   4083c:	d0a6b117 	ldw	r2,-25916(gp)
   40840:	10802804 	addi	r2,r2,160
   40844:	10800017 	ldw	r2,0(r2)
   40848:	1885883a 	add	r2,r3,r2
   4084c:	e0bffa15 	stw	r2,-24(fp)
		x2 = data[16] - data[40];
   40850:	d0a6b117 	ldw	r2,-25916(gp)
   40854:	10801004 	addi	r2,r2,64
   40858:	10c00017 	ldw	r3,0(r2)
   4085c:	d0a6b117 	ldw	r2,-25916(gp)
   40860:	10802804 	addi	r2,r2,160
   40864:	10800017 	ldw	r2,0(r2)
   40868:	1885c83a 	sub	r2,r3,r2
   4086c:	e0bffb15 	stw	r2,-20(fp)

		x5 = data[24] + data[32];
   40870:	d0a6b117 	ldw	r2,-25916(gp)
   40874:	10801804 	addi	r2,r2,96
   40878:	10c00017 	ldw	r3,0(r2)
   4087c:	d0a6b117 	ldw	r2,-25916(gp)
   40880:	10802004 	addi	r2,r2,128
   40884:	10800017 	ldw	r2,0(r2)
   40888:	1885883a 	add	r2,r3,r2
   4088c:	e0bffc15 	stw	r2,-16(fp)
		x3 = data[24] - data[32];
   40890:	d0a6b117 	ldw	r2,-25916(gp)
   40894:	10801804 	addi	r2,r2,96
   40898:	10c00017 	ldw	r3,0(r2)
   4089c:	d0a6b117 	ldw	r2,-25916(gp)
   408a0:	10802004 	addi	r2,r2,128
   408a4:	10800017 	ldw	r2,0(r2)
   408a8:	1885c83a 	sub	r2,r3,r2
   408ac:	e0bffd15 	stw	r2,-12(fp)

		x4 = x8 + x5;
   408b0:	e0fff617 	ldw	r3,-40(fp)
   408b4:	e0bffc17 	ldw	r2,-16(fp)
   408b8:	1885883a 	add	r2,r3,r2
   408bc:	e0bffe15 	stw	r2,-8(fp)
		x8 -= x5;
   408c0:	e0fff617 	ldw	r3,-40(fp)
   408c4:	e0bffc17 	ldw	r2,-16(fp)
   408c8:	1885c83a 	sub	r2,r3,r2
   408cc:	e0bff615 	stw	r2,-40(fp)

		x5 = x7 + x6;
   408d0:	e0fff817 	ldw	r3,-32(fp)
   408d4:	e0bffa17 	ldw	r2,-24(fp)
   408d8:	1885883a 	add	r2,r3,r2
   408dc:	e0bffc15 	stw	r2,-16(fp)
		x7 -= x6;
   408e0:	e0fff817 	ldw	r3,-32(fp)
   408e4:	e0bffa17 	ldw	r2,-24(fp)
   408e8:	1885c83a 	sub	r2,r3,r2
   408ec:	e0bff815 	stw	r2,-32(fp)

		data[0] = (int16_t) ((x4 + x5) >> s1);
   408f0:	d0a6b117 	ldw	r2,-25916(gp)
   408f4:	e13ffe17 	ldw	r4,-8(fp)
   408f8:	e0fffc17 	ldw	r3,-16(fp)
   408fc:	20c9883a 	add	r4,r4,r3
   40900:	d0e0038b 	ldhu	r3,-32754(gp)
   40904:	18ffffcc 	andi	r3,r3,65535
   40908:	20c7d83a 	sra	r3,r4,r3
   4090c:	18ffffcc 	andi	r3,r3,65535
   40910:	18e0001c 	xori	r3,r3,32768
   40914:	18e00004 	addi	r3,r3,-32768
   40918:	10c00015 	stw	r3,0(r2)
		data[32] = (int16_t) ((x4 - x5) >> s1);
   4091c:	d0a6b117 	ldw	r2,-25916(gp)
   40920:	10802004 	addi	r2,r2,128
   40924:	e13ffe17 	ldw	r4,-8(fp)
   40928:	e0fffc17 	ldw	r3,-16(fp)
   4092c:	20c9c83a 	sub	r4,r4,r3
   40930:	d0e0038b 	ldhu	r3,-32754(gp)
   40934:	18ffffcc 	andi	r3,r3,65535
   40938:	20c7d83a 	sra	r3,r4,r3
   4093c:	18ffffcc 	andi	r3,r3,65535
   40940:	18e0001c 	xori	r3,r3,32768
   40944:	18e00004 	addi	r3,r3,-32768
   40948:	10c00015 	stw	r3,0(r2)

		data[16] = (int16_t) ((x8*c2 + x7*c6) >> s3);
   4094c:	d0a6b117 	ldw	r2,-25916(gp)
   40950:	14001004 	addi	r16,r2,64
   40954:	d0a0000b 	ldhu	r2,-32768(gp)
   40958:	10bfffcc 	andi	r2,r2,65535
   4095c:	1009883a 	mov	r4,r2
   40960:	e17ff617 	ldw	r5,-40(fp)
   40964:	00419f00 	call	419f0 <__mulsi3>
   40968:	1023883a 	mov	r17,r2
   4096c:	d0a0008b 	ldhu	r2,-32766(gp)
   40970:	10bfffcc 	andi	r2,r2,65535
   40974:	1009883a 	mov	r4,r2
   40978:	e17ff817 	ldw	r5,-32(fp)
   4097c:	00419f00 	call	419f0 <__mulsi3>
   40980:	8887883a 	add	r3,r17,r2
   40984:	d0a0040b 	ldhu	r2,-32752(gp)
   40988:	10bfffcc 	andi	r2,r2,65535
   4098c:	1885d83a 	sra	r2,r3,r2
   40990:	10bfffcc 	andi	r2,r2,65535
   40994:	10a0001c 	xori	r2,r2,32768
   40998:	10a00004 	addi	r2,r2,-32768
   4099c:	80800015 	stw	r2,0(r16)
		data[48] = (int16_t) ((x8*c6 - x7*c2) >> s3);
   409a0:	d0a6b117 	ldw	r2,-25916(gp)
   409a4:	14003004 	addi	r16,r2,192
   409a8:	d0a0008b 	ldhu	r2,-32766(gp)
   409ac:	10bfffcc 	andi	r2,r2,65535
   409b0:	1009883a 	mov	r4,r2
   409b4:	e17ff617 	ldw	r5,-40(fp)
   409b8:	00419f00 	call	419f0 <__mulsi3>
   409bc:	1023883a 	mov	r17,r2
   409c0:	d0a0000b 	ldhu	r2,-32768(gp)
   409c4:	10bfffcc 	andi	r2,r2,65535
   409c8:	1009883a 	mov	r4,r2
   409cc:	e17ff817 	ldw	r5,-32(fp)
   409d0:	00419f00 	call	419f0 <__mulsi3>
   409d4:	8887c83a 	sub	r3,r17,r2
   409d8:	d0a0040b 	ldhu	r2,-32752(gp)
   409dc:	10bfffcc 	andi	r2,r2,65535
   409e0:	1885d83a 	sra	r2,r3,r2
   409e4:	10bfffcc 	andi	r2,r2,65535
   409e8:	10a0001c 	xori	r2,r2,32768
   409ec:	10a00004 	addi	r2,r2,-32768
   409f0:	80800015 	stw	r2,0(r16)

		data[56] = (int16_t) ((x0*c7 - x1*c5 + x2*c3 - x3*c1) >> s3);
   409f4:	d0a6b117 	ldw	r2,-25916(gp)
   409f8:	14003804 	addi	r16,r2,224
   409fc:	d0a0018b 	ldhu	r2,-32762(gp)
   40a00:	10bfffcc 	andi	r2,r2,65535
   40a04:	1009883a 	mov	r4,r2
   40a08:	e17ff717 	ldw	r5,-36(fp)
   40a0c:	00419f00 	call	419f0 <__mulsi3>
   40a10:	1023883a 	mov	r17,r2
   40a14:	d0a0020b 	ldhu	r2,-32760(gp)
   40a18:	10bfffcc 	andi	r2,r2,65535
   40a1c:	1009883a 	mov	r4,r2
   40a20:	e17ff917 	ldw	r5,-28(fp)
   40a24:	00419f00 	call	419f0 <__mulsi3>
   40a28:	88a3c83a 	sub	r17,r17,r2
   40a2c:	d0a0028b 	ldhu	r2,-32758(gp)
   40a30:	10bfffcc 	andi	r2,r2,65535
   40a34:	1009883a 	mov	r4,r2
   40a38:	e17ffb17 	ldw	r5,-20(fp)
   40a3c:	00419f00 	call	419f0 <__mulsi3>
   40a40:	88a3883a 	add	r17,r17,r2
   40a44:	d0a0030b 	ldhu	r2,-32756(gp)
   40a48:	10bfffcc 	andi	r2,r2,65535
   40a4c:	1009883a 	mov	r4,r2
   40a50:	e17ffd17 	ldw	r5,-12(fp)
   40a54:	00419f00 	call	419f0 <__mulsi3>
   40a58:	8887c83a 	sub	r3,r17,r2
   40a5c:	d0a0040b 	ldhu	r2,-32752(gp)
   40a60:	10bfffcc 	andi	r2,r2,65535
   40a64:	1885d83a 	sra	r2,r3,r2
   40a68:	10bfffcc 	andi	r2,r2,65535
   40a6c:	10a0001c 	xori	r2,r2,32768
   40a70:	10a00004 	addi	r2,r2,-32768
   40a74:	80800015 	stw	r2,0(r16)
		data[40] = (int16_t) ((x0*c5 - x1*c1 + x2*c7 + x3*c3) >> s3);
   40a78:	d0a6b117 	ldw	r2,-25916(gp)
   40a7c:	14002804 	addi	r16,r2,160
   40a80:	d0a0020b 	ldhu	r2,-32760(gp)
   40a84:	10bfffcc 	andi	r2,r2,65535
   40a88:	1009883a 	mov	r4,r2
   40a8c:	e17ff717 	ldw	r5,-36(fp)
   40a90:	00419f00 	call	419f0 <__mulsi3>
   40a94:	1023883a 	mov	r17,r2
   40a98:	d0a0030b 	ldhu	r2,-32756(gp)
   40a9c:	10bfffcc 	andi	r2,r2,65535
   40aa0:	1009883a 	mov	r4,r2
   40aa4:	e17ff917 	ldw	r5,-28(fp)
   40aa8:	00419f00 	call	419f0 <__mulsi3>
   40aac:	88a3c83a 	sub	r17,r17,r2
   40ab0:	d0a0018b 	ldhu	r2,-32762(gp)
   40ab4:	10bfffcc 	andi	r2,r2,65535
   40ab8:	1009883a 	mov	r4,r2
   40abc:	e17ffb17 	ldw	r5,-20(fp)
   40ac0:	00419f00 	call	419f0 <__mulsi3>
   40ac4:	88a3883a 	add	r17,r17,r2
   40ac8:	d0a0028b 	ldhu	r2,-32758(gp)
   40acc:	10bfffcc 	andi	r2,r2,65535
   40ad0:	1009883a 	mov	r4,r2
   40ad4:	e17ffd17 	ldw	r5,-12(fp)
   40ad8:	00419f00 	call	419f0 <__mulsi3>
   40adc:	8887883a 	add	r3,r17,r2
   40ae0:	d0a0040b 	ldhu	r2,-32752(gp)
   40ae4:	10bfffcc 	andi	r2,r2,65535
   40ae8:	1885d83a 	sra	r2,r3,r2
   40aec:	10bfffcc 	andi	r2,r2,65535
   40af0:	10a0001c 	xori	r2,r2,32768
   40af4:	10a00004 	addi	r2,r2,-32768
   40af8:	80800015 	stw	r2,0(r16)
		data[24] = (int16_t) ((x0*c3 - x1*c7 - x2*c1 - x3*c5) >> s3);
   40afc:	d0a6b117 	ldw	r2,-25916(gp)
   40b00:	14001804 	addi	r16,r2,96
   40b04:	d0a0028b 	ldhu	r2,-32758(gp)
   40b08:	10bfffcc 	andi	r2,r2,65535
   40b0c:	1009883a 	mov	r4,r2
   40b10:	e17ff717 	ldw	r5,-36(fp)
   40b14:	00419f00 	call	419f0 <__mulsi3>
   40b18:	1023883a 	mov	r17,r2
   40b1c:	d0a0018b 	ldhu	r2,-32762(gp)
   40b20:	10bfffcc 	andi	r2,r2,65535
   40b24:	1009883a 	mov	r4,r2
   40b28:	e17ff917 	ldw	r5,-28(fp)
   40b2c:	00419f00 	call	419f0 <__mulsi3>
   40b30:	88a3c83a 	sub	r17,r17,r2
   40b34:	d0a0030b 	ldhu	r2,-32756(gp)
   40b38:	10bfffcc 	andi	r2,r2,65535
   40b3c:	1009883a 	mov	r4,r2
   40b40:	e17ffb17 	ldw	r5,-20(fp)
   40b44:	00419f00 	call	419f0 <__mulsi3>
   40b48:	88a3c83a 	sub	r17,r17,r2
   40b4c:	d0a0020b 	ldhu	r2,-32760(gp)
   40b50:	10bfffcc 	andi	r2,r2,65535
   40b54:	1009883a 	mov	r4,r2
   40b58:	e17ffd17 	ldw	r5,-12(fp)
   40b5c:	00419f00 	call	419f0 <__mulsi3>
   40b60:	8887c83a 	sub	r3,r17,r2
   40b64:	d0a0040b 	ldhu	r2,-32752(gp)
   40b68:	10bfffcc 	andi	r2,r2,65535
   40b6c:	1885d83a 	sra	r2,r3,r2
   40b70:	10bfffcc 	andi	r2,r2,65535
   40b74:	10a0001c 	xori	r2,r2,32768
   40b78:	10a00004 	addi	r2,r2,-32768
   40b7c:	80800015 	stw	r2,0(r16)
		data[8] = (int16_t) ((x0*c1 + x1*c3 + x2*c5 + x3*c7) >> s3);
   40b80:	d0a6b117 	ldw	r2,-25916(gp)
   40b84:	14000804 	addi	r16,r2,32
   40b88:	d0a0030b 	ldhu	r2,-32756(gp)
   40b8c:	10bfffcc 	andi	r2,r2,65535
   40b90:	1009883a 	mov	r4,r2
   40b94:	e17ff717 	ldw	r5,-36(fp)
   40b98:	00419f00 	call	419f0 <__mulsi3>
   40b9c:	1023883a 	mov	r17,r2
   40ba0:	d0a0028b 	ldhu	r2,-32758(gp)
   40ba4:	10bfffcc 	andi	r2,r2,65535
   40ba8:	1009883a 	mov	r4,r2
   40bac:	e17ff917 	ldw	r5,-28(fp)
   40bb0:	00419f00 	call	419f0 <__mulsi3>
   40bb4:	88a3883a 	add	r17,r17,r2
   40bb8:	d0a0020b 	ldhu	r2,-32760(gp)
   40bbc:	10bfffcc 	andi	r2,r2,65535
   40bc0:	1009883a 	mov	r4,r2
   40bc4:	e17ffb17 	ldw	r5,-20(fp)
   40bc8:	00419f00 	call	419f0 <__mulsi3>
   40bcc:	88a3883a 	add	r17,r17,r2
   40bd0:	d0a0018b 	ldhu	r2,-32762(gp)
   40bd4:	10bfffcc 	andi	r2,r2,65535
   40bd8:	1009883a 	mov	r4,r2
   40bdc:	e17ffd17 	ldw	r5,-12(fp)
   40be0:	00419f00 	call	419f0 <__mulsi3>
   40be4:	8887883a 	add	r3,r17,r2
   40be8:	d0a0040b 	ldhu	r2,-32752(gp)
   40bec:	10bfffcc 	andi	r2,r2,65535
   40bf0:	1885d83a 	sra	r2,r3,r2
   40bf4:	10bfffcc 	andi	r2,r2,65535
   40bf8:	10a0001c 	xori	r2,r2,32768
   40bfc:	10a00004 	addi	r2,r2,-32768
   40c00:	80800015 	stw	r2,0(r16)
		data++;
   40c04:	d0a6b117 	ldw	r2,-25916(gp)
   40c08:	10800104 	addi	r2,r2,4
   40c0c:	d0a6b115 	stw	r2,-25916(gp)

		data += 8;
	}
	data -= 64;

	for (i=8; i>0; i--){
   40c10:	e0bff50b 	ldhu	r2,-44(fp)
   40c14:	10bfffc4 	addi	r2,r2,-1
   40c18:	e0bff50d 	sth	r2,-44(fp)
   40c1c:	e0bff50b 	ldhu	r2,-44(fp)
   40c20:	103ee51e 	bne	r2,zero,407b8 <DCT+0x51c>
		data[24] = (int16_t) ((x0*c3 - x1*c7 - x2*c1 - x3*c5) >> s3);
		data[8] = (int16_t) ((x0*c1 + x1*c3 + x2*c5 + x3*c7) >> s3);
		data++;
	}

	data -= 8;
   40c24:	d0a6b117 	ldw	r2,-25916(gp)
   40c28:	10bff804 	addi	r2,r2,-32
   40c2c:	d0a6b115 	stw	r2,-25916(gp)

	/* write out to queue */
	for (i=0; i<64; i++){
   40c30:	e03ff50d 	sth	zero,-44(fp)
   40c34:	00000e06 	br	40c70 <DCT+0x9d4>
		SEND(data[i]);
   40c38:	d0e6b117 	ldw	r3,-25916(gp)
   40c3c:	e0bff50b 	ldhu	r2,-44(fp)
   40c40:	1085883a 	add	r2,r2,r2
   40c44:	1085883a 	add	r2,r2,r2
   40c48:	1885883a 	add	r2,r3,r2
   40c4c:	10800017 	ldw	r2,0(r2)
   40c50:	10bfffcc 	andi	r2,r2,65535
   40c54:	10a0001c 	xori	r2,r2,32768
   40c58:	10a00004 	addi	r2,r2,-32768
   40c5c:	1009883a 	mov	r4,r2
   40c60:	00401f40 	call	401f4 <SEND>
	}

	data -= 8;

	/* write out to queue */
	for (i=0; i<64; i++){
   40c64:	e0bff50b 	ldhu	r2,-44(fp)
   40c68:	10800044 	addi	r2,r2,1
   40c6c:	e0bff50d 	sth	r2,-44(fp)
   40c70:	e0bff50b 	ldhu	r2,-44(fp)
   40c74:	10801030 	cmpltui	r2,r2,64
   40c78:	103fef1e 	bne	r2,zero,40c38 <DCT+0x99c>
		SEND(data[i]);
	}
	printf("round %d\n\n", round);
   40c7c:	e0bfff03 	ldbu	r2,-4(fp)
   40c80:	01000174 	movhi	r4,5
   40c84:	21381104 	addi	r4,r4,-8124
   40c88:	100b883a 	mov	r5,r2
   40c8c:	00421f00 	call	421f0 <printf>
	//readStatus_CD();
	ledBlink(3);
   40c90:	010000c4 	movi	r4,3
   40c94:	00419940 	call	41994 <ledBlink>
}
   40c98:	e037883a 	mov	sp,fp
   40c9c:	dfc00317 	ldw	ra,12(sp)
   40ca0:	df000217 	ldw	fp,8(sp)
   40ca4:	dc400117 	ldw	r17,4(sp)
   40ca8:	dc000017 	ldw	r16,0(sp)
   40cac:	dec00404 	addi	sp,sp,16
   40cb0:	f800283a 	ret

00040cb4 <INIT_B>:
#include <stdlib.h>

//#include "sys/alt_timestamp.h"
#include "FIFO.h"

void INIT_B(uint32_t csrAddr, uint8_t id, uint8_t size){
   40cb4:	defffa04 	addi	sp,sp,-24
   40cb8:	dfc00515 	stw	ra,20(sp)
   40cbc:	df000415 	stw	fp,16(sp)
   40cc0:	df000404 	addi	fp,sp,16
   40cc4:	e13ffd15 	stw	r4,-12(fp)
   40cc8:	2807883a 	mov	r3,r5
   40ccc:	3005883a 	mov	r2,r6
   40cd0:	e0fffe05 	stb	r3,-8(fp)
   40cd4:	e0bfff05 	stb	r2,-4(fp)

	//int resp = altera_avalon_fifo_init(csrAddr, 0, ALMOST_EMPTY, ALMOST_FULL);
	int resp = altera_avalon_fifo_init(csrAddr, 0, 2, size-5);
   40cd8:	e0bfff03 	ldbu	r2,-4(fp)
   40cdc:	10bffec4 	addi	r2,r2,-5
   40ce0:	e13ffd17 	ldw	r4,-12(fp)
   40ce4:	000b883a 	mov	r5,zero
   40ce8:	01800084 	movi	r6,2
   40cec:	100f883a 	mov	r7,r2
   40cf0:	004bbf80 	call	4bbf8 <altera_avalon_fifo_init>
   40cf4:	e0bffc15 	stw	r2,-16(fp)

	printf("FIFO %d Init\n", id);
   40cf8:	e0bffe03 	ldbu	r2,-8(fp)
   40cfc:	01000174 	movhi	r4,5
   40d00:	21381404 	addi	r4,r4,-8112
   40d04:	100b883a 	mov	r5,r2
   40d08:	00421f00 	call	421f0 <printf>
	else if(resp == ALTERA_AVALON_FIFO_IENABLE_WRITE_ERROR)  printf("ALTERA_AVALON_FIFO_IENABLE_WRITE_ERROR\n\n");
	else if(resp == ALTERA_AVALON_FIFO_THRESHOLD_WRITE_ERROR)  printf("ALTERA_AVALON_FIFO_THRESHOLD_WRITE_ERROR\n\n");
	else printf("Unknown\n\n");
*/
	//print_status(csrAddr);
}
   40d0c:	e037883a 	mov	sp,fp
   40d10:	dfc00117 	ldw	ra,4(sp)
   40d14:	df000017 	ldw	fp,0(sp)
   40d18:	dec00204 	addi	sp,sp,8
   40d1c:	f800283a 	ret

00040d20 <WRITE_B>:

void WRITE_B(int *buffer, uint32_t writeAddr, uint32_t csrAddr, uint8_t size, uint8_t id){
   40d20:	defff804 	addi	sp,sp,-32
   40d24:	dfc00715 	stw	ra,28(sp)
   40d28:	df000615 	stw	fp,24(sp)
   40d2c:	df000604 	addi	fp,sp,24
   40d30:	e13ffb15 	stw	r4,-20(fp)
   40d34:	e17ffc15 	stw	r5,-16(fp)
   40d38:	e1bffd15 	stw	r6,-12(fp)
   40d3c:	3805883a 	mov	r2,r7
   40d40:	e0c00217 	ldw	r3,8(fp)
   40d44:	e0bffe05 	stb	r2,-8(fp)
   40d48:	e0ffff05 	stb	r3,-4(fp)

	while(altera_avalon_fifo_read_level(csrAddr)>=size){
   40d4c:	0001883a 	nop
   40d50:	00000106 	br	40d58 <WRITE_B+0x38>
		continue;
   40d54:	0001883a 	nop
	//print_status(csrAddr);
}

void WRITE_B(int *buffer, uint32_t writeAddr, uint32_t csrAddr, uint8_t size, uint8_t id){

	while(altera_avalon_fifo_read_level(csrAddr)>=size){
   40d58:	e13ffd17 	ldw	r4,-12(fp)
   40d5c:	004bd9c0 	call	4bd9c <altera_avalon_fifo_read_level>
   40d60:	e0fffe03 	ldbu	r3,-8(fp)
   40d64:	10fffb0e 	bge	r2,r3,40d54 <WRITE_B+0x34>
		continue;
	}
	int resp = altera_avalon_fifo_write_fifo(writeAddr, csrAddr , *buffer);
   40d68:	e0bffb17 	ldw	r2,-20(fp)
   40d6c:	10800017 	ldw	r2,0(r2)
   40d70:	e13ffc17 	ldw	r4,-16(fp)
   40d74:	e17ffd17 	ldw	r5,-12(fp)
   40d78:	100d883a 	mov	r6,r2
   40d7c:	004bf280 	call	4bf28 <altera_avalon_fifo_write_fifo>
   40d80:	e0bffa15 	stw	r2,-24(fp)
	else if(resp== ALTERA_AVALON_FIFO_FULL) printf("resp: ALTERA_AVALON_FIFO_FULL\n");
	int level = altera_avalon_fifo_read_level(csrAddr);
	printf("%d > write %d to FIFO, resp=%d level=%d\n\n", id, (int)*buffer, resp, level);
	#endif

}
   40d84:	e037883a 	mov	sp,fp
   40d88:	dfc00117 	ldw	ra,4(sp)
   40d8c:	df000017 	ldw	fp,0(sp)
   40d90:	dec00204 	addi	sp,sp,8
   40d94:	f800283a 	ret

00040d98 <READ_B>:

void READ_B(int *buffer, uint32_t readAddr, uint32_t csrAddr, uint8_t id){
   40d98:	defff904 	addi	sp,sp,-28
   40d9c:	dfc00615 	stw	ra,24(sp)
   40da0:	df000515 	stw	fp,20(sp)
   40da4:	df000504 	addi	fp,sp,20
   40da8:	e13ffc15 	stw	r4,-16(fp)
   40dac:	e17ffd15 	stw	r5,-12(fp)
   40db0:	e1bffe15 	stw	r6,-8(fp)
   40db4:	3805883a 	mov	r2,r7
   40db8:	e0bfff05 	stb	r2,-4(fp)

	while(altera_avalon_fifo_read_level(csrAddr)==0){
   40dbc:	0001883a 	nop
   40dc0:	00000106 	br	40dc8 <READ_B+0x30>
		continue;
   40dc4:	0001883a 	nop

}

void READ_B(int *buffer, uint32_t readAddr, uint32_t csrAddr, uint8_t id){

	while(altera_avalon_fifo_read_level(csrAddr)==0){
   40dc8:	e13ffe17 	ldw	r4,-8(fp)
   40dcc:	004bd9c0 	call	4bd9c <altera_avalon_fifo_read_level>
   40dd0:	103ffc26 	beq	r2,zero,40dc4 <READ_B+0x2c>
		continue;
	}

	int resp = altera_avalon_fifo_read_fifo(readAddr, csrAddr);
   40dd4:	e13ffd17 	ldw	r4,-12(fp)
   40dd8:	e17ffe17 	ldw	r5,-8(fp)
   40ddc:	004bfec0 	call	4bfec <altera_avalon_fifo_read_fifo>
   40de0:	e0bffb15 	stw	r2,-20(fp)
	*buffer = resp;
   40de4:	e0bffc17 	ldw	r2,-16(fp)
   40de8:	e0fffb17 	ldw	r3,-20(fp)
   40dec:	10c00015 	stw	r3,0(r2)
	else if(resp== ALTERA_AVALON_FIFO_FULL) printf("ALTERA_AVALON_FIFO_FULL\n\n");
	int level = altera_avalon_fifo_read_level(csrAddr);
	printf("reading from FIFO, resp=%d level=%d\n", resp, level);
	#endif

}
   40df0:	e037883a 	mov	sp,fp
   40df4:	dfc00117 	ldw	ra,4(sp)
   40df8:	df000017 	ldw	fp,0(sp)
   40dfc:	dec00204 	addi	sp,sp,8
   40e00:	f800283a 	ret

00040e04 <WRITE_FIFO>:



//------------------------------------------------------------------------------

void WRITE_FIFO(int *buffer){
   40e04:	defffe04 	addi	sp,sp,-8
   40e08:	df000115 	stw	fp,4(sp)
   40e0c:	df000104 	addi	fp,sp,4
   40e10:	e13fff15 	stw	r4,-4(fp)
#endif

//printf("%lu \n",(unsigned long)((sw_timeB - sw_timeA)));
//t= t+(sw_timeB - sw_timeA);
*/
}
   40e14:	e037883a 	mov	sp,fp
   40e18:	df000017 	ldw	fp,0(sp)
   40e1c:	dec00104 	addi	sp,sp,4
   40e20:	f800283a 	ret

00040e24 <READ_FIFO>:

void READ_FIFO(int *buffer){
   40e24:	defffe04 	addi	sp,sp,-8
   40e28:	df000115 	stw	fp,4(sp)
   40e2c:	df000104 	addi	fp,sp,4
   40e30:	e13fff15 	stw	r4,-4(fp)
#endif

//printf("%lu \n",(unsigned long)((sw_timeB - sw_timeA)));
//t= t+(sw_timeB - sw_timeA);
*/
}
   40e34:	e037883a 	mov	sp,fp
   40e38:	df000017 	ldw	fp,0(sp)
   40e3c:	dec00104 	addi	sp,sp,4
   40e40:	f800283a 	ret

00040e44 <FIFO_INIT>:

//Initialization
void FIFO_INIT(){
   40e44:	deffff04 	addi	sp,sp,-4
   40e48:	df000015 	stw	fp,0(sp)
   40e4c:	d839883a 	mov	fp,sp
	else if(resp == ALTERA_AVALON_FIFO_THRESHOLD_WRITE_ERROR)  printf("ALTERA_AVALON_FIFO_THRESHOLD_WRITE_ERROR\n\n");
	else printf("Unknown\n\n");

	print_status(INPUT_FIFO_IN_CSR_BASE);
	*/
}
   40e50:	e037883a 	mov	sp,fp
   40e54:	df000017 	ldw	fp,0(sp)
   40e58:	dec00104 	addi	sp,sp,4
   40e5c:	f800283a 	ret

00040e60 <print_status>:


volatile int input_fifo_wrclk_irq_event;

void print_status(alt_u32 control_base_address){
   40e60:	defffd04 	addi	sp,sp,-12
   40e64:	dfc00215 	stw	ra,8(sp)
   40e68:	df000115 	stw	fp,4(sp)
   40e6c:	df000104 	addi	fp,sp,4
   40e70:	e13fff15 	stw	r4,-4(fp)
	printf("--------------------------------------\n");
   40e74:	01000174 	movhi	r4,5
   40e78:	21381804 	addi	r4,r4,-8096
   40e7c:	00422b00 	call	422b0 <puts>
	printf("LEVEL = %u\n", altera_avalon_fifo_read_level(control_base_address) );
   40e80:	e13fff17 	ldw	r4,-4(fp)
   40e84:	004bd9c0 	call	4bd9c <altera_avalon_fifo_read_level>
   40e88:	01000174 	movhi	r4,5
   40e8c:	21382204 	addi	r4,r4,-8056
   40e90:	100b883a 	mov	r5,r2
   40e94:	00421f00 	call	421f0 <printf>
	printf("STATUS = %u\n", altera_avalon_fifo_read_status(control_base_address, ALTERA_AVALON_FIFO_STATUS_ALL) );
   40e98:	e13fff17 	ldw	r4,-4(fp)
   40e9c:	01400fc4 	movi	r5,63
   40ea0:	004bc900 	call	4bc90 <altera_avalon_fifo_read_status>
   40ea4:	01000174 	movhi	r4,5
   40ea8:	21382504 	addi	r4,r4,-8044
   40eac:	100b883a 	mov	r5,r2
   40eb0:	00421f00 	call	421f0 <printf>
	printf("EVENT = %u\n", altera_avalon_fifo_read_event(control_base_address, ALTERA_AVALON_FIFO_EVENT_ALL) );
   40eb4:	e13fff17 	ldw	r4,-4(fp)
   40eb8:	01400fc4 	movi	r5,63
   40ebc:	004bd600 	call	4bd60 <altera_avalon_fifo_read_event>
   40ec0:	01000174 	movhi	r4,5
   40ec4:	21382904 	addi	r4,r4,-8028
   40ec8:	100b883a 	mov	r5,r2
   40ecc:	00421f00 	call	421f0 <printf>
	//printf("IENABLE = %u\n", altera_avalon_fifo_read_ienable(control_base_address, ALTERA_AVALON_FIFO_IENABLE_ALL) );
	printf("ALMOSTEMPTY = %u\n", altera_avalon_fifo_read_almostempty(control_base_address) );
   40ed0:	e13fff17 	ldw	r4,-4(fp)
   40ed4:	004bd340 	call	4bd34 <altera_avalon_fifo_read_almostempty>
   40ed8:	01000174 	movhi	r4,5
   40edc:	21382c04 	addi	r4,r4,-8016
   40ee0:	100b883a 	mov	r5,r2
   40ee4:	00421f00 	call	421f0 <printf>
	printf("ALMOSTFULL = %u\n\n", 	altera_avalon_fifo_read_almostfull(control_base_address));
   40ee8:	e13fff17 	ldw	r4,-4(fp)
   40eec:	004bd080 	call	4bd08 <altera_avalon_fifo_read_almostfull>
   40ef0:	01000174 	movhi	r4,5
   40ef4:	21383104 	addi	r4,r4,-7996
   40ef8:	100b883a 	mov	r5,r2
   40efc:	00421f00 	call	421f0 <printf>
}
   40f00:	e037883a 	mov	sp,fp
   40f04:	dfc00117 	ldw	ra,4(sp)
   40f08:	df000017 	ldw	fp,0(sp)
   40f0c:	dec00204 	addi	sp,sp,8
   40f10:	f800283a 	ret

00040f14 <init_AB_0>:
#include "FIFO.h"



// FIFO_AB_0 -------------------------------------------------------------------
void init_AB_0(){
   40f14:	defffe04 	addi	sp,sp,-8
   40f18:	dfc00115 	stw	ra,4(sp)
   40f1c:	df000015 	stw	fp,0(sp)
   40f20:	d839883a 	mov	fp,sp
   INIT_B(FIFO_AB_0_CSR, FIFO_AB_0_ID, FIFO_AB_0_SIZE);
   40f24:	01020074 	movhi	r4,2049
   40f28:	21042804 	addi	r4,r4,4256
   40f2c:	000b883a 	mov	r5,zero
   40f30:	01801f44 	movi	r6,125
   40f34:	0040cb40 	call	40cb4 <INIT_B>
}
   40f38:	e037883a 	mov	sp,fp
   40f3c:	dfc00117 	ldw	ra,4(sp)
   40f40:	df000017 	ldw	fp,0(sp)
   40f44:	dec00204 	addi	sp,sp,8
   40f48:	f800283a 	ret

00040f4c <read_AB_0>:
int read_AB_0(){
   40f4c:	defffd04 	addi	sp,sp,-12
   40f50:	dfc00215 	stw	ra,8(sp)
   40f54:	df000115 	stw	fp,4(sp)
   40f58:	df000104 	addi	fp,sp,4
   int val;
   READ_B(&val, FIFO_AB_0_READ, FIFO_AB_0_CSR, FIFO_AB_0_ID);
   40f5c:	e13fff04 	addi	r4,fp,-4
   40f60:	01420074 	movhi	r5,2049
   40f64:	29445604 	addi	r5,r5,4440
   40f68:	01820074 	movhi	r6,2049
   40f6c:	31842804 	addi	r6,r6,4256
   40f70:	000f883a 	mov	r7,zero
   40f74:	0040d980 	call	40d98 <READ_B>
   return val;
   40f78:	e0bfff17 	ldw	r2,-4(fp)
}
   40f7c:	e037883a 	mov	sp,fp
   40f80:	dfc00117 	ldw	ra,4(sp)
   40f84:	df000017 	ldw	fp,0(sp)
   40f88:	dec00204 	addi	sp,sp,8
   40f8c:	f800283a 	ret

00040f90 <write_AB_0>:
void write_AB_0(int *buffer){
   40f90:	defffc04 	addi	sp,sp,-16
   40f94:	dfc00315 	stw	ra,12(sp)
   40f98:	df000215 	stw	fp,8(sp)
   40f9c:	df000204 	addi	fp,sp,8
   40fa0:	e13fff15 	stw	r4,-4(fp)
   WRITE_B(buffer, FIFO_AB_0_WRITE, FIFO_AB_0_CSR, FIFO_AB_0_SIZE, FIFO_AB_0_ID);
   40fa4:	d8000015 	stw	zero,0(sp)
   40fa8:	e13fff17 	ldw	r4,-4(fp)
   40fac:	01420074 	movhi	r5,2049
   40fb0:	29445904 	addi	r5,r5,4452
   40fb4:	01820074 	movhi	r6,2049
   40fb8:	31842804 	addi	r6,r6,4256
   40fbc:	01c01f44 	movi	r7,125
   40fc0:	0040d200 	call	40d20 <WRITE_B>
}
   40fc4:	e037883a 	mov	sp,fp
   40fc8:	dfc00117 	ldw	ra,4(sp)
   40fcc:	df000017 	ldw	fp,0(sp)
   40fd0:	dec00204 	addi	sp,sp,8
   40fd4:	f800283a 	ret

00040fd8 <readStatus_AB_0>:
void readStatus_AB_0(){
   40fd8:	defffe04 	addi	sp,sp,-8
   40fdc:	dfc00115 	stw	ra,4(sp)
   40fe0:	df000015 	stw	fp,0(sp)
   40fe4:	d839883a 	mov	fp,sp
   print_status(FIFO_AB_0_CSR);
   40fe8:	01020074 	movhi	r4,2049
   40fec:	21042804 	addi	r4,r4,4256
   40ff0:	0040e600 	call	40e60 <print_status>
}
   40ff4:	e037883a 	mov	sp,fp
   40ff8:	dfc00117 	ldw	ra,4(sp)
   40ffc:	df000017 	ldw	fp,0(sp)
   41000:	dec00204 	addi	sp,sp,8
   41004:	f800283a 	ret

00041008 <init_AB_1>:

// FIFO_AB_1 -------------------------------------------------------------------
void init_AB_1(){
   41008:	defffe04 	addi	sp,sp,-8
   4100c:	dfc00115 	stw	ra,4(sp)
   41010:	df000015 	stw	fp,0(sp)
   41014:	d839883a 	mov	fp,sp
   INIT_B(FIFO_AB_1_CSR, FIFO_AB_1_ID, FIFO_AB_1_SIZE);
   41018:	01020074 	movhi	r4,2049
   4101c:	21042004 	addi	r4,r4,4224
   41020:	01400044 	movi	r5,1
   41024:	01801f44 	movi	r6,125
   41028:	0040cb40 	call	40cb4 <INIT_B>
}
   4102c:	e037883a 	mov	sp,fp
   41030:	dfc00117 	ldw	ra,4(sp)
   41034:	df000017 	ldw	fp,0(sp)
   41038:	dec00204 	addi	sp,sp,8
   4103c:	f800283a 	ret

00041040 <read_AB_1>:
int read_AB_1(){
   41040:	defffd04 	addi	sp,sp,-12
   41044:	dfc00215 	stw	ra,8(sp)
   41048:	df000115 	stw	fp,4(sp)
   4104c:	df000104 	addi	fp,sp,4
   int val;
   READ_B(&val, FIFO_AB_1_READ, FIFO_AB_1_CSR, FIFO_AB_1_ID);
   41050:	e13fff04 	addi	r4,fp,-4
   41054:	01420074 	movhi	r5,2049
   41058:	29445504 	addi	r5,r5,4436
   4105c:	01820074 	movhi	r6,2049
   41060:	31842004 	addi	r6,r6,4224
   41064:	01c00044 	movi	r7,1
   41068:	0040d980 	call	40d98 <READ_B>
   return val;
   4106c:	e0bfff17 	ldw	r2,-4(fp)
}
   41070:	e037883a 	mov	sp,fp
   41074:	dfc00117 	ldw	ra,4(sp)
   41078:	df000017 	ldw	fp,0(sp)
   4107c:	dec00204 	addi	sp,sp,8
   41080:	f800283a 	ret

00041084 <write_AB_1>:
void write_AB_1(int *buffer){
   41084:	defffc04 	addi	sp,sp,-16
   41088:	dfc00315 	stw	ra,12(sp)
   4108c:	df000215 	stw	fp,8(sp)
   41090:	df000204 	addi	fp,sp,8
   41094:	e13fff15 	stw	r4,-4(fp)
   WRITE_B(buffer, FIFO_AB_1_WRITE, FIFO_AB_1_CSR, FIFO_AB_1_SIZE, FIFO_AB_1_ID);
   41098:	00800044 	movi	r2,1
   4109c:	d8800015 	stw	r2,0(sp)
   410a0:	e13fff17 	ldw	r4,-4(fp)
   410a4:	01420074 	movhi	r5,2049
   410a8:	29445804 	addi	r5,r5,4448
   410ac:	01820074 	movhi	r6,2049
   410b0:	31842004 	addi	r6,r6,4224
   410b4:	01c01f44 	movi	r7,125
   410b8:	0040d200 	call	40d20 <WRITE_B>
}
   410bc:	e037883a 	mov	sp,fp
   410c0:	dfc00117 	ldw	ra,4(sp)
   410c4:	df000017 	ldw	fp,0(sp)
   410c8:	dec00204 	addi	sp,sp,8
   410cc:	f800283a 	ret

000410d0 <readStatus_AB_1>:
void readStatus_AB_1(){
   410d0:	defffe04 	addi	sp,sp,-8
   410d4:	dfc00115 	stw	ra,4(sp)
   410d8:	df000015 	stw	fp,0(sp)
   410dc:	d839883a 	mov	fp,sp
   print_status(FIFO_AB_1_CSR);
   410e0:	01020074 	movhi	r4,2049
   410e4:	21042004 	addi	r4,r4,4224
   410e8:	0040e600 	call	40e60 <print_status>
}
   410ec:	e037883a 	mov	sp,fp
   410f0:	dfc00117 	ldw	ra,4(sp)
   410f4:	df000017 	ldw	fp,0(sp)
   410f8:	dec00204 	addi	sp,sp,8
   410fc:	f800283a 	ret

00041100 <init_AB_2>:

// FIFO_AB_2 -------------------------------------------------------------------
void init_AB_2(){
   41100:	defffe04 	addi	sp,sp,-8
   41104:	dfc00115 	stw	ra,4(sp)
   41108:	df000015 	stw	fp,0(sp)
   4110c:	d839883a 	mov	fp,sp
   INIT_B(FIFO_AB_2_CSR, FIFO_AB_2_ID, FIFO_AB_2_SIZE);
   41110:	01020074 	movhi	r4,2049
   41114:	21041804 	addi	r4,r4,4192
   41118:	01400084 	movi	r5,2
   4111c:	01801f44 	movi	r6,125
   41120:	0040cb40 	call	40cb4 <INIT_B>
}
   41124:	e037883a 	mov	sp,fp
   41128:	dfc00117 	ldw	ra,4(sp)
   4112c:	df000017 	ldw	fp,0(sp)
   41130:	dec00204 	addi	sp,sp,8
   41134:	f800283a 	ret

00041138 <read_AB_2>:
int read_AB_2(){
   41138:	defffd04 	addi	sp,sp,-12
   4113c:	dfc00215 	stw	ra,8(sp)
   41140:	df000115 	stw	fp,4(sp)
   41144:	df000104 	addi	fp,sp,4
   int val;
   READ_B(&val, FIFO_AB_2_READ, FIFO_AB_2_CSR, FIFO_AB_2_ID);
   41148:	e13fff04 	addi	r4,fp,-4
   4114c:	01420074 	movhi	r5,2049
   41150:	29445404 	addi	r5,r5,4432
   41154:	01820074 	movhi	r6,2049
   41158:	31841804 	addi	r6,r6,4192
   4115c:	01c00084 	movi	r7,2
   41160:	0040d980 	call	40d98 <READ_B>
   return val;
   41164:	e0bfff17 	ldw	r2,-4(fp)
}
   41168:	e037883a 	mov	sp,fp
   4116c:	dfc00117 	ldw	ra,4(sp)
   41170:	df000017 	ldw	fp,0(sp)
   41174:	dec00204 	addi	sp,sp,8
   41178:	f800283a 	ret

0004117c <write_AB_2>:
void write_AB_2(int *buffer){
   4117c:	defffc04 	addi	sp,sp,-16
   41180:	dfc00315 	stw	ra,12(sp)
   41184:	df000215 	stw	fp,8(sp)
   41188:	df000204 	addi	fp,sp,8
   4118c:	e13fff15 	stw	r4,-4(fp)
   WRITE_B(buffer, FIFO_AB_2_WRITE, FIFO_AB_2_CSR, FIFO_AB_2_SIZE, FIFO_AB_2_ID);
   41190:	00800084 	movi	r2,2
   41194:	d8800015 	stw	r2,0(sp)
   41198:	e13fff17 	ldw	r4,-4(fp)
   4119c:	01420074 	movhi	r5,2049
   411a0:	29445704 	addi	r5,r5,4444
   411a4:	01820074 	movhi	r6,2049
   411a8:	31841804 	addi	r6,r6,4192
   411ac:	01c01f44 	movi	r7,125
   411b0:	0040d200 	call	40d20 <WRITE_B>
}
   411b4:	e037883a 	mov	sp,fp
   411b8:	dfc00117 	ldw	ra,4(sp)
   411bc:	df000017 	ldw	fp,0(sp)
   411c0:	dec00204 	addi	sp,sp,8
   411c4:	f800283a 	ret

000411c8 <readStatus_AB_2>:
void readStatus_AB_2(){
   411c8:	defffe04 	addi	sp,sp,-8
   411cc:	dfc00115 	stw	ra,4(sp)
   411d0:	df000015 	stw	fp,0(sp)
   411d4:	d839883a 	mov	fp,sp
   print_status(FIFO_AB_2_CSR);
   411d8:	01020074 	movhi	r4,2049
   411dc:	21041804 	addi	r4,r4,4192
   411e0:	0040e600 	call	40e60 <print_status>
}
   411e4:	e037883a 	mov	sp,fp
   411e8:	dfc00117 	ldw	ra,4(sp)
   411ec:	df000017 	ldw	fp,0(sp)
   411f0:	dec00204 	addi	sp,sp,8
   411f4:	f800283a 	ret

000411f8 <init_AD>:

// FIFO_AD -------------------------------------------------------------------
void init_AD(){
   411f8:	defffe04 	addi	sp,sp,-8
   411fc:	dfc00115 	stw	ra,4(sp)
   41200:	df000015 	stw	fp,0(sp)
   41204:	d839883a 	mov	fp,sp
   INIT_B(FIFO_AD_CSR, FIFO_AD_ID, FIFO_AD_SIZE);
   41208:	01020074 	movhi	r4,2049
   4120c:	21041004 	addi	r4,r4,4160
   41210:	014000c4 	movi	r5,3
   41214:	01800744 	movi	r6,29
   41218:	0040cb40 	call	40cb4 <INIT_B>
}
   4121c:	e037883a 	mov	sp,fp
   41220:	dfc00117 	ldw	ra,4(sp)
   41224:	df000017 	ldw	fp,0(sp)
   41228:	dec00204 	addi	sp,sp,8
   4122c:	f800283a 	ret

00041230 <read_AD>:
int read_AD(){
   41230:	defffd04 	addi	sp,sp,-12
   41234:	dfc00215 	stw	ra,8(sp)
   41238:	df000115 	stw	fp,4(sp)
   4123c:	df000104 	addi	fp,sp,4
   int val;
   READ_B(&val, FIFO_AD_READ, FIFO_AD_CSR, FIFO_AD_ID);
   41240:	e13fff04 	addi	r4,fp,-4
   41244:	01420074 	movhi	r5,2049
   41248:	29445204 	addi	r5,r5,4424
   4124c:	01820074 	movhi	r6,2049
   41250:	31841004 	addi	r6,r6,4160
   41254:	01c000c4 	movi	r7,3
   41258:	0040d980 	call	40d98 <READ_B>
   return val;
   4125c:	e0bfff17 	ldw	r2,-4(fp)
}
   41260:	e037883a 	mov	sp,fp
   41264:	dfc00117 	ldw	ra,4(sp)
   41268:	df000017 	ldw	fp,0(sp)
   4126c:	dec00204 	addi	sp,sp,8
   41270:	f800283a 	ret

00041274 <write_AD>:
void write_AD(int *buffer){
   41274:	defffc04 	addi	sp,sp,-16
   41278:	dfc00315 	stw	ra,12(sp)
   4127c:	df000215 	stw	fp,8(sp)
   41280:	df000204 	addi	fp,sp,8
   41284:	e13fff15 	stw	r4,-4(fp)
   WRITE_B(buffer, FIFO_AD_WRITE, FIFO_AD_CSR, FIFO_AD_SIZE, FIFO_AD_ID);
   41288:	008000c4 	movi	r2,3
   4128c:	d8800015 	stw	r2,0(sp)
   41290:	e13fff17 	ldw	r4,-4(fp)
   41294:	01420074 	movhi	r5,2049
   41298:	29445304 	addi	r5,r5,4428
   4129c:	01820074 	movhi	r6,2049
   412a0:	31841004 	addi	r6,r6,4160
   412a4:	01c00744 	movi	r7,29
   412a8:	0040d200 	call	40d20 <WRITE_B>
}
   412ac:	e037883a 	mov	sp,fp
   412b0:	dfc00117 	ldw	ra,4(sp)
   412b4:	df000017 	ldw	fp,0(sp)
   412b8:	dec00204 	addi	sp,sp,8
   412bc:	f800283a 	ret

000412c0 <readStatus_AD>:
void readStatus_AD(){
   412c0:	defffe04 	addi	sp,sp,-8
   412c4:	dfc00115 	stw	ra,4(sp)
   412c8:	df000015 	stw	fp,0(sp)
   412cc:	d839883a 	mov	fp,sp
   print_status(FIFO_AD_CSR);
   412d0:	01020074 	movhi	r4,2049
   412d4:	21041004 	addi	r4,r4,4160
   412d8:	0040e600 	call	40e60 <print_status>
}
   412dc:	e037883a 	mov	sp,fp
   412e0:	dfc00117 	ldw	ra,4(sp)
   412e4:	df000017 	ldw	fp,0(sp)
   412e8:	dec00204 	addi	sp,sp,8
   412ec:	f800283a 	ret

000412f0 <init_AE>:


// FIFO_AE -------------------------------------------------------------------
void init_AE(){
   412f0:	defffe04 	addi	sp,sp,-8
   412f4:	dfc00115 	stw	ra,4(sp)
   412f8:	df000015 	stw	fp,0(sp)
   412fc:	d839883a 	mov	fp,sp
   INIT_B(FIFO_AE_CSR, FIFO_AE_ID, FIFO_AE_SIZE);
   41300:	01020074 	movhi	r4,2049
   41304:	21040804 	addi	r4,r4,4128
   41308:	01400104 	movi	r5,4
   4130c:	01800744 	movi	r6,29
   41310:	0040cb40 	call	40cb4 <INIT_B>
}
   41314:	e037883a 	mov	sp,fp
   41318:	dfc00117 	ldw	ra,4(sp)
   4131c:	df000017 	ldw	fp,0(sp)
   41320:	dec00204 	addi	sp,sp,8
   41324:	f800283a 	ret

00041328 <read_AE>:
int read_AE(){
   41328:	defffd04 	addi	sp,sp,-12
   4132c:	dfc00215 	stw	ra,8(sp)
   41330:	df000115 	stw	fp,4(sp)
   41334:	df000104 	addi	fp,sp,4
   int val;
   READ_B(&val, FIFO_AE_READ, FIFO_AE_CSR, FIFO_AE_ID);
   41338:	e13fff04 	addi	r4,fp,-4
   4133c:	01420074 	movhi	r5,2049
   41340:	29445004 	addi	r5,r5,4416
   41344:	01820074 	movhi	r6,2049
   41348:	31840804 	addi	r6,r6,4128
   4134c:	01c00104 	movi	r7,4
   41350:	0040d980 	call	40d98 <READ_B>
   return val;
   41354:	e0bfff17 	ldw	r2,-4(fp)
}
   41358:	e037883a 	mov	sp,fp
   4135c:	dfc00117 	ldw	ra,4(sp)
   41360:	df000017 	ldw	fp,0(sp)
   41364:	dec00204 	addi	sp,sp,8
   41368:	f800283a 	ret

0004136c <write_AE>:
void write_AE(int *buffer){
   4136c:	defffc04 	addi	sp,sp,-16
   41370:	dfc00315 	stw	ra,12(sp)
   41374:	df000215 	stw	fp,8(sp)
   41378:	df000204 	addi	fp,sp,8
   4137c:	e13fff15 	stw	r4,-4(fp)
   WRITE_B(buffer, FIFO_AE_WRITE, FIFO_AE_CSR, FIFO_AE_SIZE, FIFO_AE_ID);
   41380:	00800104 	movi	r2,4
   41384:	d8800015 	stw	r2,0(sp)
   41388:	e13fff17 	ldw	r4,-4(fp)
   4138c:	01420074 	movhi	r5,2049
   41390:	29445104 	addi	r5,r5,4420
   41394:	01820074 	movhi	r6,2049
   41398:	31840804 	addi	r6,r6,4128
   4139c:	01c00744 	movi	r7,29
   413a0:	0040d200 	call	40d20 <WRITE_B>
}
   413a4:	e037883a 	mov	sp,fp
   413a8:	dfc00117 	ldw	ra,4(sp)
   413ac:	df000017 	ldw	fp,0(sp)
   413b0:	dec00204 	addi	sp,sp,8
   413b4:	f800283a 	ret

000413b8 <readStatus_AE>:
void readStatus_AE(){
   413b8:	defffe04 	addi	sp,sp,-8
   413bc:	dfc00115 	stw	ra,4(sp)
   413c0:	df000015 	stw	fp,0(sp)
   413c4:	d839883a 	mov	fp,sp
   print_status(FIFO_AE_CSR);
   413c8:	01020074 	movhi	r4,2049
   413cc:	21040804 	addi	r4,r4,4128
   413d0:	0040e600 	call	40e60 <print_status>
}
   413d4:	e037883a 	mov	sp,fp
   413d8:	dfc00117 	ldw	ra,4(sp)
   413dc:	df000017 	ldw	fp,0(sp)
   413e0:	dec00204 	addi	sp,sp,8
   413e4:	f800283a 	ret

000413e8 <init_AF>:

// FIFO_AF -------------------------------------------------------------------
void init_AF(){
   413e8:	defffe04 	addi	sp,sp,-8
   413ec:	dfc00115 	stw	ra,4(sp)
   413f0:	df000015 	stw	fp,0(sp)
   413f4:	d839883a 	mov	fp,sp
   INIT_B(FIFO_AF_CSR, FIFO_AF_ID, FIFO_AF_SIZE);
   413f8:	01020074 	movhi	r4,2049
   413fc:	21040004 	addi	r4,r4,4096
   41400:	01400144 	movi	r5,5
   41404:	01800744 	movi	r6,29
   41408:	0040cb40 	call	40cb4 <INIT_B>
}
   4140c:	e037883a 	mov	sp,fp
   41410:	dfc00117 	ldw	ra,4(sp)
   41414:	df000017 	ldw	fp,0(sp)
   41418:	dec00204 	addi	sp,sp,8
   4141c:	f800283a 	ret

00041420 <read_AF>:
int read_AF(){
   41420:	defffd04 	addi	sp,sp,-12
   41424:	dfc00215 	stw	ra,8(sp)
   41428:	df000115 	stw	fp,4(sp)
   4142c:	df000104 	addi	fp,sp,4
   int val;
   READ_B(&val, FIFO_AF_READ, FIFO_AF_CSR, FIFO_AF_ID);
   41430:	e13fff04 	addi	r4,fp,-4
   41434:	01420074 	movhi	r5,2049
   41438:	29444e04 	addi	r5,r5,4408
   4143c:	01820074 	movhi	r6,2049
   41440:	31840004 	addi	r6,r6,4096
   41444:	01c00144 	movi	r7,5
   41448:	0040d980 	call	40d98 <READ_B>
   return val;
   4144c:	e0bfff17 	ldw	r2,-4(fp)
}
   41450:	e037883a 	mov	sp,fp
   41454:	dfc00117 	ldw	ra,4(sp)
   41458:	df000017 	ldw	fp,0(sp)
   4145c:	dec00204 	addi	sp,sp,8
   41460:	f800283a 	ret

00041464 <write_AF>:
void write_AF(int *buffer){
   41464:	defffc04 	addi	sp,sp,-16
   41468:	dfc00315 	stw	ra,12(sp)
   4146c:	df000215 	stw	fp,8(sp)
   41470:	df000204 	addi	fp,sp,8
   41474:	e13fff15 	stw	r4,-4(fp)
   WRITE_B(buffer, FIFO_AF_WRITE, FIFO_AF_CSR, FIFO_AF_SIZE, FIFO_AF_ID);
   41478:	00800144 	movi	r2,5
   4147c:	d8800015 	stw	r2,0(sp)
   41480:	e13fff17 	ldw	r4,-4(fp)
   41484:	01420074 	movhi	r5,2049
   41488:	29444f04 	addi	r5,r5,4412
   4148c:	01820074 	movhi	r6,2049
   41490:	31840004 	addi	r6,r6,4096
   41494:	01c00744 	movi	r7,29
   41498:	0040d200 	call	40d20 <WRITE_B>
}
   4149c:	e037883a 	mov	sp,fp
   414a0:	dfc00117 	ldw	ra,4(sp)
   414a4:	df000017 	ldw	fp,0(sp)
   414a8:	dec00204 	addi	sp,sp,8
   414ac:	f800283a 	ret

000414b0 <readStatus_AF>:
void readStatus_AF(){
   414b0:	defffe04 	addi	sp,sp,-8
   414b4:	dfc00115 	stw	ra,4(sp)
   414b8:	df000015 	stw	fp,0(sp)
   414bc:	d839883a 	mov	fp,sp
   print_status(FIFO_AF_CSR);
   414c0:	01020074 	movhi	r4,2049
   414c4:	21040004 	addi	r4,r4,4096
   414c8:	0040e600 	call	40e60 <print_status>
}
   414cc:	e037883a 	mov	sp,fp
   414d0:	dfc00117 	ldw	ra,4(sp)
   414d4:	df000017 	ldw	fp,0(sp)
   414d8:	dec00204 	addi	sp,sp,8
   414dc:	f800283a 	ret

000414e0 <init_BC>:

// FIFO_BC -------------------------------------------------------------------
void init_BC(){
   414e0:	defffe04 	addi	sp,sp,-8
   414e4:	dfc00115 	stw	ra,4(sp)
   414e8:	df000015 	stw	fp,0(sp)
   414ec:	d839883a 	mov	fp,sp
   INIT_B(FIFO_BC_CSR, FIFO_BC_ID, FIFO_BC_SIZE);
   414f0:	01020074 	movhi	r4,2049
   414f4:	21040004 	addi	r4,r4,4096
   414f8:	01400184 	movi	r5,6
   414fc:	01803f44 	movi	r6,253
   41500:	0040cb40 	call	40cb4 <INIT_B>
}
   41504:	e037883a 	mov	sp,fp
   41508:	dfc00117 	ldw	ra,4(sp)
   4150c:	df000017 	ldw	fp,0(sp)
   41510:	dec00204 	addi	sp,sp,8
   41514:	f800283a 	ret

00041518 <read_BC>:
int read_BC(){
   41518:	defffd04 	addi	sp,sp,-12
   4151c:	dfc00215 	stw	ra,8(sp)
   41520:	df000115 	stw	fp,4(sp)
   41524:	df000104 	addi	fp,sp,4
   int val;
   READ_B(&val, FIFO_BC_READ, FIFO_BC_CSR, FIFO_BC_ID);
   41528:	e13fff04 	addi	r4,fp,-4
   4152c:	01420074 	movhi	r5,2049
   41530:	29443604 	addi	r5,r5,4312
   41534:	01820074 	movhi	r6,2049
   41538:	31840004 	addi	r6,r6,4096
   4153c:	01c00184 	movi	r7,6
   41540:	0040d980 	call	40d98 <READ_B>
   return val;
   41544:	e0bfff17 	ldw	r2,-4(fp)
}
   41548:	e037883a 	mov	sp,fp
   4154c:	dfc00117 	ldw	ra,4(sp)
   41550:	df000017 	ldw	fp,0(sp)
   41554:	dec00204 	addi	sp,sp,8
   41558:	f800283a 	ret

0004155c <write_BC>:
void write_BC(int *buffer){
   4155c:	defffc04 	addi	sp,sp,-16
   41560:	dfc00315 	stw	ra,12(sp)
   41564:	df000215 	stw	fp,8(sp)
   41568:	df000204 	addi	fp,sp,8
   4156c:	e13fff15 	stw	r4,-4(fp)
   WRITE_B(buffer, FIFO_BC_WRITE, FIFO_BC_CSR, FIFO_BC_SIZE, FIFO_BC_ID);
   41570:	00800184 	movi	r2,6
   41574:	d8800015 	stw	r2,0(sp)
   41578:	e13fff17 	ldw	r4,-4(fp)
   4157c:	01420074 	movhi	r5,2049
   41580:	29443704 	addi	r5,r5,4316
   41584:	01820074 	movhi	r6,2049
   41588:	31840004 	addi	r6,r6,4096
   4158c:	01c03f44 	movi	r7,253
   41590:	0040d200 	call	40d20 <WRITE_B>
}
   41594:	e037883a 	mov	sp,fp
   41598:	dfc00117 	ldw	ra,4(sp)
   4159c:	df000017 	ldw	fp,0(sp)
   415a0:	dec00204 	addi	sp,sp,8
   415a4:	f800283a 	ret

000415a8 <readStatus_BC>:
void readStatus_BC(){
   415a8:	defffe04 	addi	sp,sp,-8
   415ac:	dfc00115 	stw	ra,4(sp)
   415b0:	df000015 	stw	fp,0(sp)
   415b4:	d839883a 	mov	fp,sp
   print_status(FIFO_BC_CSR);
   415b8:	01020074 	movhi	r4,2049
   415bc:	21040004 	addi	r4,r4,4096
   415c0:	0040e600 	call	40e60 <print_status>
}
   415c4:	e037883a 	mov	sp,fp
   415c8:	dfc00117 	ldw	ra,4(sp)
   415cc:	df000017 	ldw	fp,0(sp)
   415d0:	dec00204 	addi	sp,sp,8
   415d4:	f800283a 	ret

000415d8 <init_CD>:

// FIFO_CD -------------------------------------------------------------------
void init_CD(){
   415d8:	defffe04 	addi	sp,sp,-8
   415dc:	dfc00115 	stw	ra,4(sp)
   415e0:	df000015 	stw	fp,0(sp)
   415e4:	d839883a 	mov	fp,sp
   INIT_B(FIFO_CD_CSR, FIFO_CD_ID, FIFO_CD_SIZE);
   415e8:	01020074 	movhi	r4,2049
   415ec:	21040804 	addi	r4,r4,4128
   415f0:	014001c4 	movi	r5,7
   415f4:	01803f44 	movi	r6,253
   415f8:	0040cb40 	call	40cb4 <INIT_B>
}
   415fc:	e037883a 	mov	sp,fp
   41600:	dfc00117 	ldw	ra,4(sp)
   41604:	df000017 	ldw	fp,0(sp)
   41608:	dec00204 	addi	sp,sp,8
   4160c:	f800283a 	ret

00041610 <read_CD>:
int read_CD(){
   41610:	defffd04 	addi	sp,sp,-12
   41614:	dfc00215 	stw	ra,8(sp)
   41618:	df000115 	stw	fp,4(sp)
   4161c:	df000104 	addi	fp,sp,4
   int val;
   READ_B(&val, FIFO_CD_READ, FIFO_CD_CSR, FIFO_CD_ID);
   41620:	e13fff04 	addi	r4,fp,-4
   41624:	01420074 	movhi	r5,2049
   41628:	29442604 	addi	r5,r5,4248
   4162c:	01820074 	movhi	r6,2049
   41630:	31840804 	addi	r6,r6,4128
   41634:	01c001c4 	movi	r7,7
   41638:	0040d980 	call	40d98 <READ_B>
   return val;
   4163c:	e0bfff17 	ldw	r2,-4(fp)
}
   41640:	e037883a 	mov	sp,fp
   41644:	dfc00117 	ldw	ra,4(sp)
   41648:	df000017 	ldw	fp,0(sp)
   4164c:	dec00204 	addi	sp,sp,8
   41650:	f800283a 	ret

00041654 <write_CD>:
void write_CD(int *buffer){
   41654:	defffc04 	addi	sp,sp,-16
   41658:	dfc00315 	stw	ra,12(sp)
   4165c:	df000215 	stw	fp,8(sp)
   41660:	df000204 	addi	fp,sp,8
   41664:	e13fff15 	stw	r4,-4(fp)
   WRITE_B(buffer, FIFO_CD_WRITE, FIFO_CD_CSR, FIFO_CD_SIZE, FIFO_CD_ID);
   41668:	008001c4 	movi	r2,7
   4166c:	d8800015 	stw	r2,0(sp)
   41670:	e13fff17 	ldw	r4,-4(fp)
   41674:	01420074 	movhi	r5,2049
   41678:	29442704 	addi	r5,r5,4252
   4167c:	01820074 	movhi	r6,2049
   41680:	31840804 	addi	r6,r6,4128
   41684:	01c03f44 	movi	r7,253
   41688:	0040d200 	call	40d20 <WRITE_B>
}
   4168c:	e037883a 	mov	sp,fp
   41690:	dfc00117 	ldw	ra,4(sp)
   41694:	df000017 	ldw	fp,0(sp)
   41698:	dec00204 	addi	sp,sp,8
   4169c:	f800283a 	ret

000416a0 <readStatus_CD>:
void readStatus_CD(){
   416a0:	defffe04 	addi	sp,sp,-8
   416a4:	dfc00115 	stw	ra,4(sp)
   416a8:	df000015 	stw	fp,0(sp)
   416ac:	d839883a 	mov	fp,sp
   print_status(FIFO_CD_CSR);
   416b0:	01020074 	movhi	r4,2049
   416b4:	21040804 	addi	r4,r4,4128
   416b8:	0040e600 	call	40e60 <print_status>
}
   416bc:	e037883a 	mov	sp,fp
   416c0:	dfc00117 	ldw	ra,4(sp)
   416c4:	df000017 	ldw	fp,0(sp)
   416c8:	dec00204 	addi	sp,sp,8
   416cc:	f800283a 	ret

000416d0 <init_DE>:

// FIFO_DE -------------------------------------------------------------------
void init_DE(){
   416d0:	defffe04 	addi	sp,sp,-8
   416d4:	dfc00115 	stw	ra,4(sp)
   416d8:	df000015 	stw	fp,0(sp)
   416dc:	d839883a 	mov	fp,sp
   INIT_B(FIFO_DE_CSR, FIFO_DE_ID, FIFO_DE_SIZE);
   416e0:	01020074 	movhi	r4,2049
   416e4:	21040004 	addi	r4,r4,4096
   416e8:	01400204 	movi	r5,8
   416ec:	01803f44 	movi	r6,253
   416f0:	0040cb40 	call	40cb4 <INIT_B>
}
   416f4:	e037883a 	mov	sp,fp
   416f8:	dfc00117 	ldw	ra,4(sp)
   416fc:	df000017 	ldw	fp,0(sp)
   41700:	dec00204 	addi	sp,sp,8
   41704:	f800283a 	ret

00041708 <read_DE>:
int read_DE(){
   41708:	defffd04 	addi	sp,sp,-12
   4170c:	dfc00215 	stw	ra,8(sp)
   41710:	df000115 	stw	fp,4(sp)
   41714:	df000104 	addi	fp,sp,4
   int val;
   READ_B(&val, FIFO_DE_READ, FIFO_DE_CSR, FIFO_DE_ID);
   41718:	e13fff04 	addi	r4,fp,-4
   4171c:	01420074 	movhi	r5,2049
   41720:	29443004 	addi	r5,r5,4288
   41724:	01820074 	movhi	r6,2049
   41728:	31840004 	addi	r6,r6,4096
   4172c:	01c00204 	movi	r7,8
   41730:	0040d980 	call	40d98 <READ_B>
   return val;
   41734:	e0bfff17 	ldw	r2,-4(fp)
}
   41738:	e037883a 	mov	sp,fp
   4173c:	dfc00117 	ldw	ra,4(sp)
   41740:	df000017 	ldw	fp,0(sp)
   41744:	dec00204 	addi	sp,sp,8
   41748:	f800283a 	ret

0004174c <write_DE>:
void write_DE(int *buffer){
   4174c:	defffc04 	addi	sp,sp,-16
   41750:	dfc00315 	stw	ra,12(sp)
   41754:	df000215 	stw	fp,8(sp)
   41758:	df000204 	addi	fp,sp,8
   4175c:	e13fff15 	stw	r4,-4(fp)
   WRITE_B(buffer, FIFO_DE_WRITE, FIFO_DE_CSR, FIFO_DE_SIZE, FIFO_DE_ID);
   41760:	00800204 	movi	r2,8
   41764:	d8800015 	stw	r2,0(sp)
   41768:	e13fff17 	ldw	r4,-4(fp)
   4176c:	01420074 	movhi	r5,2049
   41770:	29443104 	addi	r5,r5,4292
   41774:	01820074 	movhi	r6,2049
   41778:	31840004 	addi	r6,r6,4096
   4177c:	01c03f44 	movi	r7,253
   41780:	0040d200 	call	40d20 <WRITE_B>
}
   41784:	e037883a 	mov	sp,fp
   41788:	dfc00117 	ldw	ra,4(sp)
   4178c:	df000017 	ldw	fp,0(sp)
   41790:	dec00204 	addi	sp,sp,8
   41794:	f800283a 	ret

00041798 <readStatus_DE>:
void readStatus_DE(){
   41798:	defffe04 	addi	sp,sp,-8
   4179c:	dfc00115 	stw	ra,4(sp)
   417a0:	df000015 	stw	fp,0(sp)
   417a4:	d839883a 	mov	fp,sp
   print_status(FIFO_DE_CSR);
   417a8:	01020074 	movhi	r4,2049
   417ac:	21040004 	addi	r4,r4,4096
   417b0:	0040e600 	call	40e60 <print_status>
}
   417b4:	e037883a 	mov	sp,fp
   417b8:	dfc00117 	ldw	ra,4(sp)
   417bc:	df000017 	ldw	fp,0(sp)
   417c0:	dec00204 	addi	sp,sp,8
   417c4:	f800283a 	ret

000417c8 <init_EF>:

// FIFO_EF -------------------------------------------------------------------
void init_EF(){
   417c8:	defffe04 	addi	sp,sp,-8
   417cc:	dfc00115 	stw	ra,4(sp)
   417d0:	df000015 	stw	fp,0(sp)
   417d4:	d839883a 	mov	fp,sp
   INIT_B(FIFO_EF_CSR, FIFO_EF_ID, FIFO_EF_SIZE);
   417d8:	01020074 	movhi	r4,2049
   417dc:	21041004 	addi	r4,r4,4160
   417e0:	01400244 	movi	r5,9
   417e4:	01803f44 	movi	r6,253
   417e8:	0040cb40 	call	40cb4 <INIT_B>
}
   417ec:	e037883a 	mov	sp,fp
   417f0:	dfc00117 	ldw	ra,4(sp)
   417f4:	df000017 	ldw	fp,0(sp)
   417f8:	dec00204 	addi	sp,sp,8
   417fc:	f800283a 	ret

00041800 <read_EF>:
int read_EF(){
   41800:	defffd04 	addi	sp,sp,-12
   41804:	dfc00215 	stw	ra,8(sp)
   41808:	df000115 	stw	fp,4(sp)
   4180c:	df000104 	addi	fp,sp,4
   int val;
   READ_B(&val, FIFO_EF_READ, FIFO_EF_CSR, FIFO_EF_ID);
   41810:	e13fff04 	addi	r4,fp,-4
   41814:	01420074 	movhi	r5,2049
   41818:	29442e04 	addi	r5,r5,4280
   4181c:	01820074 	movhi	r6,2049
   41820:	31841004 	addi	r6,r6,4160
   41824:	01c00244 	movi	r7,9
   41828:	0040d980 	call	40d98 <READ_B>
   return val;
   4182c:	e0bfff17 	ldw	r2,-4(fp)
}
   41830:	e037883a 	mov	sp,fp
   41834:	dfc00117 	ldw	ra,4(sp)
   41838:	df000017 	ldw	fp,0(sp)
   4183c:	dec00204 	addi	sp,sp,8
   41840:	f800283a 	ret

00041844 <write_EF>:
void write_EF(int *buffer){
   41844:	defffc04 	addi	sp,sp,-16
   41848:	dfc00315 	stw	ra,12(sp)
   4184c:	df000215 	stw	fp,8(sp)
   41850:	df000204 	addi	fp,sp,8
   41854:	e13fff15 	stw	r4,-4(fp)
   WRITE_B(buffer, FIFO_EF_WRITE, FIFO_EF_CSR, FIFO_EF_SIZE, FIFO_EF_ID);
   41858:	00800244 	movi	r2,9
   4185c:	d8800015 	stw	r2,0(sp)
   41860:	e13fff17 	ldw	r4,-4(fp)
   41864:	01420074 	movhi	r5,2049
   41868:	29442f04 	addi	r5,r5,4284
   4186c:	01820074 	movhi	r6,2049
   41870:	31841004 	addi	r6,r6,4160
   41874:	01c03f44 	movi	r7,253
   41878:	0040d200 	call	40d20 <WRITE_B>
}
   4187c:	e037883a 	mov	sp,fp
   41880:	dfc00117 	ldw	ra,4(sp)
   41884:	df000017 	ldw	fp,0(sp)
   41888:	dec00204 	addi	sp,sp,8
   4188c:	f800283a 	ret

00041890 <readStatus_EF>:
void readStatus_EF(){
   41890:	defffe04 	addi	sp,sp,-8
   41894:	dfc00115 	stw	ra,4(sp)
   41898:	df000015 	stw	fp,0(sp)
   4189c:	d839883a 	mov	fp,sp
   print_status(FIFO_EF_CSR);
   418a0:	01020074 	movhi	r4,2049
   418a4:	21041004 	addi	r4,r4,4160
   418a8:	0040e600 	call	40e60 <print_status>
}
   418ac:	e037883a 	mov	sp,fp
   418b0:	dfc00117 	ldw	ra,4(sp)
   418b4:	df000017 	ldw	fp,0(sp)
   418b8:	dec00204 	addi	sp,sp,8
   418bc:	f800283a 	ret

000418c0 <delay>:

#include "./utility.h"
#include "./IOMap.h"


void delay(int ms){
   418c0:	defffd04 	addi	sp,sp,-12
   418c4:	dfc00215 	stw	ra,8(sp)
   418c8:	df000115 	stw	fp,4(sp)
   418cc:	df000104 	addi	fp,sp,4
   418d0:	e13fff15 	stw	r4,-4(fp)
	usleep(ms*1000);
   418d4:	e13fff17 	ldw	r4,-4(fp)
   418d8:	0140fa04 	movi	r5,1000
   418dc:	00419f00 	call	419f0 <__mulsi3>
   418e0:	1009883a 	mov	r4,r2
   418e4:	004b98c0 	call	4b98c <usleep>
}
   418e8:	e037883a 	mov	sp,fp
   418ec:	dfc00117 	ldw	ra,4(sp)
   418f0:	df000017 	ldw	fp,0(sp)
   418f4:	dec00204 	addi	sp,sp,8
   418f8:	f800283a 	ret

000418fc <ledUpdate>:

void ledUpdate(uint8_t digit, uint8_t status){
   418fc:	defffc04 	addi	sp,sp,-16
   41900:	df000315 	stw	fp,12(sp)
   41904:	df000304 	addi	fp,sp,12
   41908:	2007883a 	mov	r3,r4
   4190c:	2805883a 	mov	r2,r5
   41910:	e0fffe05 	stb	r3,-8(fp)
   41914:	e0bfff05 	stb	r2,-4(fp)
	uint8_t value =  (uint8_t)IORD_32DIRECT(LED_BASE, OFFSET);
   41918:	00820074 	movhi	r2,2049
   4191c:	10844004 	addi	r2,r2,4352
   41920:	10800037 	ldwio	r2,0(r2)
   41924:	e0bffd05 	stb	r2,-12(fp)

	if(status==1){
   41928:	e0bfff03 	ldbu	r2,-4(fp)
   4192c:	10800058 	cmpnei	r2,r2,1
   41930:	1000081e 	bne	r2,zero,41954 <ledUpdate+0x58>
		value = value | (1<<digit);
   41934:	e0bffe03 	ldbu	r2,-8(fp)
   41938:	00c00044 	movi	r3,1
   4193c:	1884983a 	sll	r2,r3,r2
   41940:	1007883a 	mov	r3,r2
   41944:	e0bffd03 	ldbu	r2,-12(fp)
   41948:	1884b03a 	or	r2,r3,r2
   4194c:	e0bffd05 	stb	r2,-12(fp)
   41950:	00000806 	br	41974 <ledUpdate+0x78>
	}else{
		value = value & (~(1<<digit));
   41954:	e0bffe03 	ldbu	r2,-8(fp)
   41958:	00c00044 	movi	r3,1
   4195c:	1884983a 	sll	r2,r3,r2
   41960:	0084303a 	nor	r2,zero,r2
   41964:	1007883a 	mov	r3,r2
   41968:	e0bffd03 	ldbu	r2,-12(fp)
   4196c:	1884703a 	and	r2,r3,r2
   41970:	e0bffd05 	stb	r2,-12(fp)
	}
	IOWR_8DIRECT(LED_BASE,OFFSET,value);
   41974:	e0fffd03 	ldbu	r3,-12(fp)
   41978:	00820074 	movhi	r2,2049
   4197c:	10844004 	addi	r2,r2,4352
   41980:	10c00025 	stbio	r3,0(r2)
}
   41984:	e037883a 	mov	sp,fp
   41988:	df000017 	ldw	fp,0(sp)
   4198c:	dec00104 	addi	sp,sp,4
   41990:	f800283a 	ret

00041994 <ledBlink>:

void ledBlink(uint8_t id){
   41994:	defffd04 	addi	sp,sp,-12
   41998:	dfc00215 	stw	ra,8(sp)
   4199c:	df000115 	stw	fp,4(sp)
   419a0:	df000104 	addi	fp,sp,4
   419a4:	2005883a 	mov	r2,r4
   419a8:	e0bfff05 	stb	r2,-4(fp)
	ledUpdate(id,1);
   419ac:	e0bfff03 	ldbu	r2,-4(fp)
   419b0:	1009883a 	mov	r4,r2
   419b4:	01400044 	movi	r5,1
   419b8:	00418fc0 	call	418fc <ledUpdate>
	delay(200);
   419bc:	01003204 	movi	r4,200
   419c0:	00418c00 	call	418c0 <delay>
	ledUpdate(id,0);
   419c4:	e0bfff03 	ldbu	r2,-4(fp)
   419c8:	1009883a 	mov	r4,r2
   419cc:	000b883a 	mov	r5,zero
   419d0:	00418fc0 	call	418fc <ledUpdate>
	delay(50);
   419d4:	01000c84 	movi	r4,50
   419d8:	00418c00 	call	418c0 <delay>
}
   419dc:	e037883a 	mov	sp,fp
   419e0:	dfc00117 	ldw	ra,4(sp)
   419e4:	df000017 	ldw	fp,0(sp)
   419e8:	dec00204 	addi	sp,sp,8
   419ec:	f800283a 	ret

000419f0 <__mulsi3>:
   419f0:	0005883a 	mov	r2,zero
   419f4:	20000726 	beq	r4,zero,41a14 <__mulsi3+0x24>
   419f8:	20c0004c 	andi	r3,r4,1
   419fc:	2008d07a 	srli	r4,r4,1
   41a00:	18000126 	beq	r3,zero,41a08 <__mulsi3+0x18>
   41a04:	1145883a 	add	r2,r2,r5
   41a08:	294b883a 	add	r5,r5,r5
   41a0c:	203ffa1e 	bne	r4,zero,419f8 <__mulsi3+0x8>
   41a10:	f800283a 	ret
   41a14:	f800283a 	ret

00041a18 <malloc>:
   41a18:	00800174 	movhi	r2,5
   41a1c:	10bf8b04 	addi	r2,r2,-468
   41a20:	200b883a 	mov	r5,r4
   41a24:	11000017 	ldw	r4,0(r2)
   41a28:	0041a401 	jmpi	41a40 <_malloc_r>

00041a2c <free>:
   41a2c:	00800174 	movhi	r2,5
   41a30:	10bf8b04 	addi	r2,r2,-468
   41a34:	200b883a 	mov	r5,r4
   41a38:	11000017 	ldw	r4,0(r2)
   41a3c:	00462941 	jmpi	46294 <_free_r>

00041a40 <_malloc_r>:
   41a40:	defff604 	addi	sp,sp,-40
   41a44:	dc800215 	stw	r18,8(sp)
   41a48:	dfc00915 	stw	ra,36(sp)
   41a4c:	df000815 	stw	fp,32(sp)
   41a50:	ddc00715 	stw	r23,28(sp)
   41a54:	dd800615 	stw	r22,24(sp)
   41a58:	dd400515 	stw	r21,20(sp)
   41a5c:	dd000415 	stw	r20,16(sp)
   41a60:	dcc00315 	stw	r19,12(sp)
   41a64:	dc400115 	stw	r17,4(sp)
   41a68:	dc000015 	stw	r16,0(sp)
   41a6c:	288002c4 	addi	r2,r5,11
   41a70:	00c00584 	movi	r3,22
   41a74:	2025883a 	mov	r18,r4
   41a78:	18802b2e 	bgeu	r3,r2,41b28 <_malloc_r+0xe8>
   41a7c:	047ffe04 	movi	r17,-8
   41a80:	1462703a 	and	r17,r2,r17
   41a84:	88002a16 	blt	r17,zero,41b30 <_malloc_r+0xf0>
   41a88:	89402936 	bltu	r17,r5,41b30 <_malloc_r+0xf0>
   41a8c:	9009883a 	mov	r4,r18
   41a90:	004b6d80 	call	4b6d8 <__malloc_lock>
   41a94:	00807dc4 	movi	r2,503
   41a98:	14402936 	bltu	r2,r17,41b40 <_malloc_r+0x100>
   41a9c:	8808d0fa 	srli	r4,r17,3
   41aa0:	04c00174 	movhi	r19,5
   41aa4:	9cf8fc04 	addi	r19,r19,-7184
   41aa8:	2105883a 	add	r2,r4,r4
   41aac:	1085883a 	add	r2,r2,r2
   41ab0:	1085883a 	add	r2,r2,r2
   41ab4:	9885883a 	add	r2,r19,r2
   41ab8:	14000317 	ldw	r16,12(r2)
   41abc:	80815526 	beq	r16,r2,42014 <_malloc_r+0x5d4>
   41ac0:	81000117 	ldw	r4,4(r16)
   41ac4:	00bfff04 	movi	r2,-4
   41ac8:	80c00317 	ldw	r3,12(r16)
   41acc:	2084703a 	and	r2,r4,r2
   41ad0:	8085883a 	add	r2,r16,r2
   41ad4:	11800117 	ldw	r6,4(r2)
   41ad8:	81400217 	ldw	r5,8(r16)
   41adc:	9009883a 	mov	r4,r18
   41ae0:	31800054 	ori	r6,r6,1
   41ae4:	11800115 	stw	r6,4(r2)
   41ae8:	28c00315 	stw	r3,12(r5)
   41aec:	19400215 	stw	r5,8(r3)
   41af0:	004b6f80 	call	4b6f8 <__malloc_unlock>
   41af4:	80800204 	addi	r2,r16,8
   41af8:	dfc00917 	ldw	ra,36(sp)
   41afc:	df000817 	ldw	fp,32(sp)
   41b00:	ddc00717 	ldw	r23,28(sp)
   41b04:	dd800617 	ldw	r22,24(sp)
   41b08:	dd400517 	ldw	r21,20(sp)
   41b0c:	dd000417 	ldw	r20,16(sp)
   41b10:	dcc00317 	ldw	r19,12(sp)
   41b14:	dc800217 	ldw	r18,8(sp)
   41b18:	dc400117 	ldw	r17,4(sp)
   41b1c:	dc000017 	ldw	r16,0(sp)
   41b20:	dec00a04 	addi	sp,sp,40
   41b24:	f800283a 	ret
   41b28:	04400404 	movi	r17,16
   41b2c:	897fd72e 	bgeu	r17,r5,41a8c <_malloc_r+0x4c>
   41b30:	00800304 	movi	r2,12
   41b34:	90800015 	stw	r2,0(r18)
   41b38:	0005883a 	mov	r2,zero
   41b3c:	003fee06 	br	41af8 <_malloc_r+0xb8>
   41b40:	8808d27a 	srli	r4,r17,9
   41b44:	20007126 	beq	r4,zero,41d0c <_malloc_r+0x2cc>
   41b48:	00800104 	movi	r2,4
   41b4c:	1100eb36 	bltu	r2,r4,41efc <_malloc_r+0x4bc>
   41b50:	8808d1ba 	srli	r4,r17,6
   41b54:	21000e04 	addi	r4,r4,56
   41b58:	210b883a 	add	r5,r4,r4
   41b5c:	294b883a 	add	r5,r5,r5
   41b60:	294b883a 	add	r5,r5,r5
   41b64:	04c00174 	movhi	r19,5
   41b68:	9cf8fc04 	addi	r19,r19,-7184
   41b6c:	994b883a 	add	r5,r19,r5
   41b70:	2c000317 	ldw	r16,12(r5)
   41b74:	2c000e26 	beq	r5,r16,41bb0 <_malloc_r+0x170>
   41b78:	80c00117 	ldw	r3,4(r16)
   41b7c:	01ffff04 	movi	r7,-4
   41b80:	018003c4 	movi	r6,15
   41b84:	19c6703a 	and	r3,r3,r7
   41b88:	1c45c83a 	sub	r2,r3,r17
   41b8c:	30800716 	blt	r6,r2,41bac <_malloc_r+0x16c>
   41b90:	1000610e 	bge	r2,zero,41d18 <_malloc_r+0x2d8>
   41b94:	84000317 	ldw	r16,12(r16)
   41b98:	2c000526 	beq	r5,r16,41bb0 <_malloc_r+0x170>
   41b9c:	80c00117 	ldw	r3,4(r16)
   41ba0:	19c6703a 	and	r3,r3,r7
   41ba4:	1c45c83a 	sub	r2,r3,r17
   41ba8:	30bff90e 	bge	r6,r2,41b90 <_malloc_r+0x150>
   41bac:	213fffc4 	addi	r4,r4,-1
   41bb0:	21000044 	addi	r4,r4,1
   41bb4:	9c000417 	ldw	r16,16(r19)
   41bb8:	00c00174 	movhi	r3,5
   41bbc:	18f8fc04 	addi	r3,r3,-7184
   41bc0:	1a400204 	addi	r9,r3,8
   41bc4:	8240ff26 	beq	r16,r9,41fc4 <_malloc_r+0x584>
   41bc8:	81400117 	ldw	r5,4(r16)
   41bcc:	00bfff04 	movi	r2,-4
   41bd0:	018003c4 	movi	r6,15
   41bd4:	2884703a 	and	r2,r5,r2
   41bd8:	144bc83a 	sub	r5,r2,r17
   41bdc:	3140ea16 	blt	r6,r5,41f88 <_malloc_r+0x548>
   41be0:	1a400515 	stw	r9,20(r3)
   41be4:	1a400415 	stw	r9,16(r3)
   41be8:	2800570e 	bge	r5,zero,41d48 <_malloc_r+0x308>
   41bec:	01407fc4 	movi	r5,511
   41bf0:	2880ca36 	bltu	r5,r2,41f1c <_malloc_r+0x4dc>
   41bf4:	1004d0fa 	srli	r2,r2,3
   41bf8:	02000044 	movi	r8,1
   41bfc:	19c00117 	ldw	r7,4(r3)
   41c00:	108b883a 	add	r5,r2,r2
   41c04:	294b883a 	add	r5,r5,r5
   41c08:	1005d0ba 	srai	r2,r2,2
   41c0c:	294b883a 	add	r5,r5,r5
   41c10:	28cb883a 	add	r5,r5,r3
   41c14:	29800217 	ldw	r6,8(r5)
   41c18:	4084983a 	sll	r2,r8,r2
   41c1c:	81400315 	stw	r5,12(r16)
   41c20:	81800215 	stw	r6,8(r16)
   41c24:	11c4b03a 	or	r2,r2,r7
   41c28:	18800115 	stw	r2,4(r3)
   41c2c:	2c000215 	stw	r16,8(r5)
   41c30:	34000315 	stw	r16,12(r6)
   41c34:	200bd0ba 	srai	r5,r4,2
   41c38:	00c00044 	movi	r3,1
   41c3c:	194a983a 	sll	r5,r3,r5
   41c40:	11404936 	bltu	r2,r5,41d68 <_malloc_r+0x328>
   41c44:	1146703a 	and	r3,r2,r5
   41c48:	18000a1e 	bne	r3,zero,41c74 <_malloc_r+0x234>
   41c4c:	00ffff04 	movi	r3,-4
   41c50:	294b883a 	add	r5,r5,r5
   41c54:	20c8703a 	and	r4,r4,r3
   41c58:	1146703a 	and	r3,r2,r5
   41c5c:	21000104 	addi	r4,r4,4
   41c60:	1800041e 	bne	r3,zero,41c74 <_malloc_r+0x234>
   41c64:	294b883a 	add	r5,r5,r5
   41c68:	1146703a 	and	r3,r2,r5
   41c6c:	21000104 	addi	r4,r4,4
   41c70:	183ffc26 	beq	r3,zero,41c64 <_malloc_r+0x224>
   41c74:	023fff04 	movi	r8,-4
   41c78:	01c003c4 	movi	r7,15
   41c7c:	2105883a 	add	r2,r4,r4
   41c80:	1085883a 	add	r2,r2,r2
   41c84:	1085883a 	add	r2,r2,r2
   41c88:	9899883a 	add	r12,r19,r2
   41c8c:	62800304 	addi	r10,r12,12
   41c90:	2017883a 	mov	r11,r4
   41c94:	54000017 	ldw	r16,0(r10)
   41c98:	51bffd04 	addi	r6,r10,-12
   41c9c:	8180041e 	bne	r16,r6,41cb0 <_malloc_r+0x270>
   41ca0:	0000ca06 	br	41fcc <_malloc_r+0x58c>
   41ca4:	10001c0e 	bge	r2,zero,41d18 <_malloc_r+0x2d8>
   41ca8:	84000317 	ldw	r16,12(r16)
   41cac:	8180c726 	beq	r16,r6,41fcc <_malloc_r+0x58c>
   41cb0:	80c00117 	ldw	r3,4(r16)
   41cb4:	1a06703a 	and	r3,r3,r8
   41cb8:	1c45c83a 	sub	r2,r3,r17
   41cbc:	38bff90e 	bge	r7,r2,41ca4 <_malloc_r+0x264>
   41cc0:	81000317 	ldw	r4,12(r16)
   41cc4:	81400217 	ldw	r5,8(r16)
   41cc8:	8447883a 	add	r3,r16,r17
   41ccc:	8c400054 	ori	r17,r17,1
   41cd0:	29000315 	stw	r4,12(r5)
   41cd4:	21400215 	stw	r5,8(r4)
   41cd8:	84400115 	stw	r17,4(r16)
   41cdc:	1889883a 	add	r4,r3,r2
   41ce0:	11400054 	ori	r5,r2,1
   41ce4:	98c00515 	stw	r3,20(r19)
   41ce8:	98c00415 	stw	r3,16(r19)
   41cec:	20800015 	stw	r2,0(r4)
   41cf0:	1a400315 	stw	r9,12(r3)
   41cf4:	1a400215 	stw	r9,8(r3)
   41cf8:	19400115 	stw	r5,4(r3)
   41cfc:	9009883a 	mov	r4,r18
   41d00:	004b6f80 	call	4b6f8 <__malloc_unlock>
   41d04:	80800204 	addi	r2,r16,8
   41d08:	003f7b06 	br	41af8 <_malloc_r+0xb8>
   41d0c:	8808d0fa 	srli	r4,r17,3
   41d10:	210b883a 	add	r5,r4,r4
   41d14:	003f9106 	br	41b5c <_malloc_r+0x11c>
   41d18:	80c7883a 	add	r3,r16,r3
   41d1c:	19400117 	ldw	r5,4(r3)
   41d20:	80800317 	ldw	r2,12(r16)
   41d24:	81000217 	ldw	r4,8(r16)
   41d28:	29400054 	ori	r5,r5,1
   41d2c:	19400115 	stw	r5,4(r3)
   41d30:	20800315 	stw	r2,12(r4)
   41d34:	11000215 	stw	r4,8(r2)
   41d38:	9009883a 	mov	r4,r18
   41d3c:	004b6f80 	call	4b6f8 <__malloc_unlock>
   41d40:	80800204 	addi	r2,r16,8
   41d44:	003f6c06 	br	41af8 <_malloc_r+0xb8>
   41d48:	8085883a 	add	r2,r16,r2
   41d4c:	10c00117 	ldw	r3,4(r2)
   41d50:	9009883a 	mov	r4,r18
   41d54:	18c00054 	ori	r3,r3,1
   41d58:	10c00115 	stw	r3,4(r2)
   41d5c:	004b6f80 	call	4b6f8 <__malloc_unlock>
   41d60:	80800204 	addi	r2,r16,8
   41d64:	003f6406 	br	41af8 <_malloc_r+0xb8>
   41d68:	9c000217 	ldw	r16,8(r19)
   41d6c:	00bfff04 	movi	r2,-4
   41d70:	85400117 	ldw	r21,4(r16)
   41d74:	a8aa703a 	and	r21,r21,r2
   41d78:	ac400336 	bltu	r21,r17,41d88 <_malloc_r+0x348>
   41d7c:	ac45c83a 	sub	r2,r21,r17
   41d80:	00c003c4 	movi	r3,15
   41d84:	18805316 	blt	r3,r2,41ed4 <_malloc_r+0x494>
   41d88:	d5e6b417 	ldw	r23,-25904(gp)
   41d8c:	d0e00517 	ldw	r3,-32748(gp)
   41d90:	00bfffc4 	movi	r2,-1
   41d94:	8579883a 	add	fp,r16,r21
   41d98:	8def883a 	add	r23,r17,r23
   41d9c:	1880d226 	beq	r3,r2,420e8 <_malloc_r+0x6a8>
   41da0:	bdc403c4 	addi	r23,r23,4111
   41da4:	00bc0004 	movi	r2,-4096
   41da8:	b8ae703a 	and	r23,r23,r2
   41dac:	9009883a 	mov	r4,r18
   41db0:	b80b883a 	mov	r5,r23
   41db4:	00422c40 	call	422c4 <_sbrk_r>
   41db8:	1029883a 	mov	r20,r2
   41dbc:	00bfffc4 	movi	r2,-1
   41dc0:	a080d126 	beq	r20,r2,42108 <_malloc_r+0x6c8>
   41dc4:	a7009f36 	bltu	r20,fp,42044 <_malloc_r+0x604>
   41dc8:	05800174 	movhi	r22,5
   41dcc:	b5864404 	addi	r22,r22,6416
   41dd0:	b0800017 	ldw	r2,0(r22)
   41dd4:	b885883a 	add	r2,r23,r2
   41dd8:	b0800015 	stw	r2,0(r22)
   41ddc:	e500cf26 	beq	fp,r20,4211c <_malloc_r+0x6dc>
   41de0:	d1200517 	ldw	r4,-32748(gp)
   41de4:	00ffffc4 	movi	r3,-1
   41de8:	20c0e026 	beq	r4,r3,4216c <_malloc_r+0x72c>
   41dec:	a739c83a 	sub	fp,r20,fp
   41df0:	1705883a 	add	r2,r2,fp
   41df4:	b0800015 	stw	r2,0(r22)
   41df8:	a08001cc 	andi	r2,r20,7
   41dfc:	1000a526 	beq	r2,zero,42094 <_malloc_r+0x654>
   41e00:	a0a9c83a 	sub	r20,r20,r2
   41e04:	00c40204 	movi	r3,4104
   41e08:	a5000204 	addi	r20,r20,8
   41e0c:	1885c83a 	sub	r2,r3,r2
   41e10:	a5c7883a 	add	r3,r20,r23
   41e14:	18c3ffcc 	andi	r3,r3,4095
   41e18:	10efc83a 	sub	r23,r2,r3
   41e1c:	9009883a 	mov	r4,r18
   41e20:	b80b883a 	mov	r5,r23
   41e24:	00422c40 	call	422c4 <_sbrk_r>
   41e28:	00ffffc4 	movi	r3,-1
   41e2c:	10c0cc26 	beq	r2,r3,42160 <_malloc_r+0x720>
   41e30:	1505c83a 	sub	r2,r2,r20
   41e34:	b887883a 	add	r3,r23,r2
   41e38:	18c00054 	ori	r3,r3,1
   41e3c:	b0800017 	ldw	r2,0(r22)
   41e40:	9d000215 	stw	r20,8(r19)
   41e44:	a0c00115 	stw	r3,4(r20)
   41e48:	b885883a 	add	r2,r23,r2
   41e4c:	b0800015 	stw	r2,0(r22)
   41e50:	84c00e26 	beq	r16,r19,41e8c <_malloc_r+0x44c>
   41e54:	00c003c4 	movi	r3,15
   41e58:	1d40902e 	bgeu	r3,r21,4209c <_malloc_r+0x65c>
   41e5c:	ad7ffd04 	addi	r21,r21,-12
   41e60:	013ffe04 	movi	r4,-8
   41e64:	a908703a 	and	r4,r21,r4
   41e68:	810b883a 	add	r5,r16,r4
   41e6c:	01800144 	movi	r6,5
   41e70:	29800115 	stw	r6,4(r5)
   41e74:	29800215 	stw	r6,8(r5)
   41e78:	81400117 	ldw	r5,4(r16)
   41e7c:	2940004c 	andi	r5,r5,1
   41e80:	214ab03a 	or	r5,r4,r5
   41e84:	81400115 	stw	r5,4(r16)
   41e88:	1900ae36 	bltu	r3,r4,42144 <_malloc_r+0x704>
   41e8c:	d0e6b317 	ldw	r3,-25908(gp)
   41e90:	1880012e 	bgeu	r3,r2,41e98 <_malloc_r+0x458>
   41e94:	d0a6b315 	stw	r2,-25908(gp)
   41e98:	d0e6b217 	ldw	r3,-25912(gp)
   41e9c:	9c000217 	ldw	r16,8(r19)
   41ea0:	1880012e 	bgeu	r3,r2,41ea8 <_malloc_r+0x468>
   41ea4:	d0a6b215 	stw	r2,-25912(gp)
   41ea8:	80c00117 	ldw	r3,4(r16)
   41eac:	00bfff04 	movi	r2,-4
   41eb0:	1886703a 	and	r3,r3,r2
   41eb4:	1c45c83a 	sub	r2,r3,r17
   41eb8:	1c400236 	bltu	r3,r17,41ec4 <_malloc_r+0x484>
   41ebc:	00c003c4 	movi	r3,15
   41ec0:	18800416 	blt	r3,r2,41ed4 <_malloc_r+0x494>
   41ec4:	9009883a 	mov	r4,r18
   41ec8:	004b6f80 	call	4b6f8 <__malloc_unlock>
   41ecc:	0005883a 	mov	r2,zero
   41ed0:	003f0906 	br	41af8 <_malloc_r+0xb8>
   41ed4:	88c00054 	ori	r3,r17,1
   41ed8:	10800054 	ori	r2,r2,1
   41edc:	80c00115 	stw	r3,4(r16)
   41ee0:	8463883a 	add	r17,r16,r17
   41ee4:	88800115 	stw	r2,4(r17)
   41ee8:	9009883a 	mov	r4,r18
   41eec:	9c400215 	stw	r17,8(r19)
   41ef0:	004b6f80 	call	4b6f8 <__malloc_unlock>
   41ef4:	80800204 	addi	r2,r16,8
   41ef8:	003eff06 	br	41af8 <_malloc_r+0xb8>
   41efc:	00800504 	movi	r2,20
   41f00:	1100492e 	bgeu	r2,r4,42028 <_malloc_r+0x5e8>
   41f04:	00801504 	movi	r2,84
   41f08:	11005c36 	bltu	r2,r4,4207c <_malloc_r+0x63c>
   41f0c:	8808d33a 	srli	r4,r17,12
   41f10:	21001b84 	addi	r4,r4,110
   41f14:	210b883a 	add	r5,r4,r4
   41f18:	003f1006 	br	41b5c <_malloc_r+0x11c>
   41f1c:	1006d27a 	srli	r3,r2,9
   41f20:	01400104 	movi	r5,4
   41f24:	28c0432e 	bgeu	r5,r3,42034 <_malloc_r+0x5f4>
   41f28:	01400504 	movi	r5,20
   41f2c:	28c07036 	bltu	r5,r3,420f0 <_malloc_r+0x6b0>
   41f30:	194016c4 	addi	r5,r3,91
   41f34:	294d883a 	add	r6,r5,r5
   41f38:	318d883a 	add	r6,r6,r6
   41f3c:	318d883a 	add	r6,r6,r6
   41f40:	998d883a 	add	r6,r19,r6
   41f44:	30c00217 	ldw	r3,8(r6)
   41f48:	01c00174 	movhi	r7,5
   41f4c:	39f8fc04 	addi	r7,r7,-7184
   41f50:	19805726 	beq	r3,r6,420b0 <_malloc_r+0x670>
   41f54:	01ffff04 	movi	r7,-4
   41f58:	19400117 	ldw	r5,4(r3)
   41f5c:	29ca703a 	and	r5,r5,r7
   41f60:	1140022e 	bgeu	r2,r5,41f6c <_malloc_r+0x52c>
   41f64:	18c00217 	ldw	r3,8(r3)
   41f68:	30fffb1e 	bne	r6,r3,41f58 <_malloc_r+0x518>
   41f6c:	19400317 	ldw	r5,12(r3)
   41f70:	98800117 	ldw	r2,4(r19)
   41f74:	81400315 	stw	r5,12(r16)
   41f78:	80c00215 	stw	r3,8(r16)
   41f7c:	2c000215 	stw	r16,8(r5)
   41f80:	1c000315 	stw	r16,12(r3)
   41f84:	003f2b06 	br	41c34 <_malloc_r+0x1f4>
   41f88:	8445883a 	add	r2,r16,r17
   41f8c:	8c400054 	ori	r17,r17,1
   41f90:	18800515 	stw	r2,20(r3)
   41f94:	18800415 	stw	r2,16(r3)
   41f98:	29000054 	ori	r4,r5,1
   41f9c:	1147883a 	add	r3,r2,r5
   41fa0:	84400115 	stw	r17,4(r16)
   41fa4:	11000115 	stw	r4,4(r2)
   41fa8:	12400315 	stw	r9,12(r2)
   41fac:	12400215 	stw	r9,8(r2)
   41fb0:	19400015 	stw	r5,0(r3)
   41fb4:	9009883a 	mov	r4,r18
   41fb8:	004b6f80 	call	4b6f8 <__malloc_unlock>
   41fbc:	80800204 	addi	r2,r16,8
   41fc0:	003ecd06 	br	41af8 <_malloc_r+0xb8>
   41fc4:	18800117 	ldw	r2,4(r3)
   41fc8:	003f1a06 	br	41c34 <_malloc_r+0x1f4>
   41fcc:	5ac00044 	addi	r11,r11,1
   41fd0:	588000cc 	andi	r2,r11,3
   41fd4:	52800204 	addi	r10,r10,8
   41fd8:	103f2e1e 	bne	r2,zero,41c94 <_malloc_r+0x254>
   41fdc:	20c000cc 	andi	r3,r4,3
   41fe0:	60bffe04 	addi	r2,r12,-8
   41fe4:	18006f26 	beq	r3,zero,421a4 <_malloc_r+0x764>
   41fe8:	63000017 	ldw	r12,0(r12)
   41fec:	213fffc4 	addi	r4,r4,-1
   41ff0:	60bffa26 	beq	r12,r2,41fdc <_malloc_r+0x59c>
   41ff4:	98800117 	ldw	r2,4(r19)
   41ff8:	294b883a 	add	r5,r5,r5
   41ffc:	117f5a36 	bltu	r2,r5,41d68 <_malloc_r+0x328>
   42000:	283f5926 	beq	r5,zero,41d68 <_malloc_r+0x328>
   42004:	1146703a 	and	r3,r2,r5
   42008:	18001626 	beq	r3,zero,42064 <_malloc_r+0x624>
   4200c:	5809883a 	mov	r4,r11
   42010:	003f1a06 	br	41c7c <_malloc_r+0x23c>
   42014:	80800204 	addi	r2,r16,8
   42018:	84000517 	ldw	r16,20(r16)
   4201c:	143ea81e 	bne	r2,r16,41ac0 <_malloc_r+0x80>
   42020:	21000084 	addi	r4,r4,2
   42024:	003ee306 	br	41bb4 <_malloc_r+0x174>
   42028:	210016c4 	addi	r4,r4,91
   4202c:	210b883a 	add	r5,r4,r4
   42030:	003eca06 	br	41b5c <_malloc_r+0x11c>
   42034:	100ad1ba 	srli	r5,r2,6
   42038:	29400e04 	addi	r5,r5,56
   4203c:	294d883a 	add	r6,r5,r5
   42040:	003fbd06 	br	41f38 <_malloc_r+0x4f8>
   42044:	84ff6026 	beq	r16,r19,41dc8 <_malloc_r+0x388>
   42048:	00800174 	movhi	r2,5
   4204c:	10b8fc04 	addi	r2,r2,-7184
   42050:	14000217 	ldw	r16,8(r2)
   42054:	00bfff04 	movi	r2,-4
   42058:	80c00117 	ldw	r3,4(r16)
   4205c:	1886703a 	and	r3,r3,r2
   42060:	003f9406 	br	41eb4 <_malloc_r+0x474>
   42064:	294b883a 	add	r5,r5,r5
   42068:	1146703a 	and	r3,r2,r5
   4206c:	5ac00104 	addi	r11,r11,4
   42070:	183ffc26 	beq	r3,zero,42064 <_malloc_r+0x624>
   42074:	5809883a 	mov	r4,r11
   42078:	003f0006 	br	41c7c <_malloc_r+0x23c>
   4207c:	00805504 	movi	r2,340
   42080:	11001336 	bltu	r2,r4,420d0 <_malloc_r+0x690>
   42084:	8808d3fa 	srli	r4,r17,15
   42088:	21001dc4 	addi	r4,r4,119
   4208c:	210b883a 	add	r5,r4,r4
   42090:	003eb206 	br	41b5c <_malloc_r+0x11c>
   42094:	00840004 	movi	r2,4096
   42098:	003f5d06 	br	41e10 <_malloc_r+0x3d0>
   4209c:	00800044 	movi	r2,1
   420a0:	a0800115 	stw	r2,4(r20)
   420a4:	a021883a 	mov	r16,r20
   420a8:	0007883a 	mov	r3,zero
   420ac:	003f8106 	br	41eb4 <_malloc_r+0x474>
   420b0:	280bd0ba 	srai	r5,r5,2
   420b4:	01800044 	movi	r6,1
   420b8:	38800117 	ldw	r2,4(r7)
   420bc:	314c983a 	sll	r6,r6,r5
   420c0:	180b883a 	mov	r5,r3
   420c4:	3084b03a 	or	r2,r6,r2
   420c8:	38800115 	stw	r2,4(r7)
   420cc:	003fa906 	br	41f74 <_malloc_r+0x534>
   420d0:	00815504 	movi	r2,1364
   420d4:	11001836 	bltu	r2,r4,42138 <_malloc_r+0x6f8>
   420d8:	8808d4ba 	srli	r4,r17,18
   420dc:	21001f04 	addi	r4,r4,124
   420e0:	210b883a 	add	r5,r4,r4
   420e4:	003e9d06 	br	41b5c <_malloc_r+0x11c>
   420e8:	bdc00404 	addi	r23,r23,16
   420ec:	003f2f06 	br	41dac <_malloc_r+0x36c>
   420f0:	01401504 	movi	r5,84
   420f4:	28c01f36 	bltu	r5,r3,42174 <_malloc_r+0x734>
   420f8:	100ad33a 	srli	r5,r2,12
   420fc:	29401b84 	addi	r5,r5,110
   42100:	294d883a 	add	r6,r5,r5
   42104:	003f8c06 	br	41f38 <_malloc_r+0x4f8>
   42108:	9c000217 	ldw	r16,8(r19)
   4210c:	00bfff04 	movi	r2,-4
   42110:	80c00117 	ldw	r3,4(r16)
   42114:	1886703a 	and	r3,r3,r2
   42118:	003f6606 	br	41eb4 <_malloc_r+0x474>
   4211c:	e0c3ffcc 	andi	r3,fp,4095
   42120:	183f2f1e 	bne	r3,zero,41de0 <_malloc_r+0x3a0>
   42124:	98c00217 	ldw	r3,8(r19)
   42128:	bd49883a 	add	r4,r23,r21
   4212c:	21000054 	ori	r4,r4,1
   42130:	19000115 	stw	r4,4(r3)
   42134:	003f5506 	br	41e8c <_malloc_r+0x44c>
   42138:	01403f04 	movi	r5,252
   4213c:	01001f84 	movi	r4,126
   42140:	003e8606 	br	41b5c <_malloc_r+0x11c>
   42144:	9009883a 	mov	r4,r18
   42148:	81400204 	addi	r5,r16,8
   4214c:	00462940 	call	46294 <_free_r>
   42150:	00800174 	movhi	r2,5
   42154:	10864404 	addi	r2,r2,6416
   42158:	10800017 	ldw	r2,0(r2)
   4215c:	003f4b06 	br	41e8c <_malloc_r+0x44c>
   42160:	00c00044 	movi	r3,1
   42164:	002f883a 	mov	r23,zero
   42168:	003f3406 	br	41e3c <_malloc_r+0x3fc>
   4216c:	d5200515 	stw	r20,-32748(gp)
   42170:	003f2106 	br	41df8 <_malloc_r+0x3b8>
   42174:	01405504 	movi	r5,340
   42178:	28c00436 	bltu	r5,r3,4218c <_malloc_r+0x74c>
   4217c:	100ad3fa 	srli	r5,r2,15
   42180:	29401dc4 	addi	r5,r5,119
   42184:	294d883a 	add	r6,r5,r5
   42188:	003f6b06 	br	41f38 <_malloc_r+0x4f8>
   4218c:	01415504 	movi	r5,1364
   42190:	28c00936 	bltu	r5,r3,421b8 <_malloc_r+0x778>
   42194:	100ad4ba 	srli	r5,r2,18
   42198:	29401f04 	addi	r5,r5,124
   4219c:	294d883a 	add	r6,r5,r5
   421a0:	003f6506 	br	41f38 <_malloc_r+0x4f8>
   421a4:	98800117 	ldw	r2,4(r19)
   421a8:	0146303a 	nor	r3,zero,r5
   421ac:	1884703a 	and	r2,r3,r2
   421b0:	98800115 	stw	r2,4(r19)
   421b4:	003f9006 	br	41ff8 <_malloc_r+0x5b8>
   421b8:	01803f04 	movi	r6,252
   421bc:	01401f84 	movi	r5,126
   421c0:	003f5d06 	br	41f38 <_malloc_r+0x4f8>

000421c4 <_printf_r>:
   421c4:	defffd04 	addi	sp,sp,-12
   421c8:	dfc00015 	stw	ra,0(sp)
   421cc:	d9800115 	stw	r6,4(sp)
   421d0:	d9c00215 	stw	r7,8(sp)
   421d4:	280d883a 	mov	r6,r5
   421d8:	21400217 	ldw	r5,8(r4)
   421dc:	d9c00104 	addi	r7,sp,4
   421e0:	00423e80 	call	423e8 <___vfprintf_internal_r>
   421e4:	dfc00017 	ldw	ra,0(sp)
   421e8:	dec00304 	addi	sp,sp,12
   421ec:	f800283a 	ret

000421f0 <printf>:
   421f0:	defffc04 	addi	sp,sp,-16
   421f4:	dfc00015 	stw	ra,0(sp)
   421f8:	d9400115 	stw	r5,4(sp)
   421fc:	d9800215 	stw	r6,8(sp)
   42200:	d9c00315 	stw	r7,12(sp)
   42204:	00800174 	movhi	r2,5
   42208:	10bf8b04 	addi	r2,r2,-468
   4220c:	10800017 	ldw	r2,0(r2)
   42210:	200b883a 	mov	r5,r4
   42214:	d9800104 	addi	r6,sp,4
   42218:	11000217 	ldw	r4,8(r2)
   4221c:	00442640 	call	44264 <__vfprintf_internal>
   42220:	dfc00017 	ldw	ra,0(sp)
   42224:	dec00404 	addi	sp,sp,16
   42228:	f800283a 	ret

0004222c <_puts_r>:
   4222c:	defff604 	addi	sp,sp,-40
   42230:	dc400815 	stw	r17,32(sp)
   42234:	2023883a 	mov	r17,r4
   42238:	2809883a 	mov	r4,r5
   4223c:	dc000715 	stw	r16,28(sp)
   42240:	dfc00915 	stw	ra,36(sp)
   42244:	2821883a 	mov	r16,r5
   42248:	00423280 	call	42328 <strlen>
   4224c:	10c00044 	addi	r3,r2,1
   42250:	d8800115 	stw	r2,4(sp)
   42254:	89400217 	ldw	r5,8(r17)
   42258:	00800174 	movhi	r2,5
   4225c:	10b83604 	addi	r2,r2,-7976
   42260:	d8800215 	stw	r2,8(sp)
   42264:	00800044 	movi	r2,1
   42268:	d8800315 	stw	r2,12(sp)
   4226c:	8809883a 	mov	r4,r17
   42270:	00800084 	movi	r2,2
   42274:	d9800404 	addi	r6,sp,16
   42278:	dc000015 	stw	r16,0(sp)
   4227c:	d8c00615 	stw	r3,24(sp)
   42280:	dec00415 	stw	sp,16(sp)
   42284:	d8800515 	stw	r2,20(sp)
   42288:	00465640 	call	46564 <__sfvwrite_r>
   4228c:	1000061e 	bne	r2,zero,422a8 <_puts_r+0x7c>
   42290:	00800284 	movi	r2,10
   42294:	dfc00917 	ldw	ra,36(sp)
   42298:	dc400817 	ldw	r17,32(sp)
   4229c:	dc000717 	ldw	r16,28(sp)
   422a0:	dec00a04 	addi	sp,sp,40
   422a4:	f800283a 	ret
   422a8:	00bfffc4 	movi	r2,-1
   422ac:	003ff906 	br	42294 <_puts_r+0x68>

000422b0 <puts>:
   422b0:	00800174 	movhi	r2,5
   422b4:	10bf8b04 	addi	r2,r2,-468
   422b8:	200b883a 	mov	r5,r4
   422bc:	11000017 	ldw	r4,0(r2)
   422c0:	004222c1 	jmpi	4222c <_puts_r>

000422c4 <_sbrk_r>:
   422c4:	defffd04 	addi	sp,sp,-12
   422c8:	dc400115 	stw	r17,4(sp)
   422cc:	dc000015 	stw	r16,0(sp)
   422d0:	2023883a 	mov	r17,r4
   422d4:	04000174 	movhi	r16,5
   422d8:	84063804 	addi	r16,r16,6368
   422dc:	2809883a 	mov	r4,r5
   422e0:	dfc00215 	stw	ra,8(sp)
   422e4:	80000015 	stw	zero,0(r16)
   422e8:	004b8dc0 	call	4b8dc <sbrk>
   422ec:	00ffffc4 	movi	r3,-1
   422f0:	10c00526 	beq	r2,r3,42308 <_sbrk_r+0x44>
   422f4:	dfc00217 	ldw	ra,8(sp)
   422f8:	dc400117 	ldw	r17,4(sp)
   422fc:	dc000017 	ldw	r16,0(sp)
   42300:	dec00304 	addi	sp,sp,12
   42304:	f800283a 	ret
   42308:	80c00017 	ldw	r3,0(r16)
   4230c:	183ff926 	beq	r3,zero,422f4 <_sbrk_r+0x30>
   42310:	88c00015 	stw	r3,0(r17)
   42314:	dfc00217 	ldw	ra,8(sp)
   42318:	dc400117 	ldw	r17,4(sp)
   4231c:	dc000017 	ldw	r16,0(sp)
   42320:	dec00304 	addi	sp,sp,12
   42324:	f800283a 	ret

00042328 <strlen>:
   42328:	208000cc 	andi	r2,r4,3
   4232c:	10001f1e 	bne	r2,zero,423ac <strlen+0x84>
   42330:	20800017 	ldw	r2,0(r4)
   42334:	01ffbff4 	movhi	r7,65279
   42338:	39ffbfc4 	addi	r7,r7,-257
   4233c:	01a02074 	movhi	r6,32897
   42340:	31a02004 	addi	r6,r6,-32640
   42344:	11c7883a 	add	r3,r2,r7
   42348:	0084303a 	nor	r2,zero,r2
   4234c:	1886703a 	and	r3,r3,r2
   42350:	1986703a 	and	r3,r3,r6
   42354:	2005883a 	mov	r2,r4
   42358:	1800101e 	bne	r3,zero,4239c <strlen+0x74>
   4235c:	10800104 	addi	r2,r2,4
   42360:	10c00017 	ldw	r3,0(r2)
   42364:	19cb883a 	add	r5,r3,r7
   42368:	00c6303a 	nor	r3,zero,r3
   4236c:	28c6703a 	and	r3,r5,r3
   42370:	1986703a 	and	r3,r3,r6
   42374:	1800091e 	bne	r3,zero,4239c <strlen+0x74>
   42378:	10800104 	addi	r2,r2,4
   4237c:	10c00017 	ldw	r3,0(r2)
   42380:	19cb883a 	add	r5,r3,r7
   42384:	00c6303a 	nor	r3,zero,r3
   42388:	28c6703a 	and	r3,r5,r3
   4238c:	1986703a 	and	r3,r3,r6
   42390:	183ff226 	beq	r3,zero,4235c <strlen+0x34>
   42394:	00000106 	br	4239c <strlen+0x74>
   42398:	10800044 	addi	r2,r2,1
   4239c:	10c00007 	ldb	r3,0(r2)
   423a0:	183ffd1e 	bne	r3,zero,42398 <strlen+0x70>
   423a4:	1105c83a 	sub	r2,r2,r4
   423a8:	f800283a 	ret
   423ac:	2005883a 	mov	r2,r4
   423b0:	003ffa06 	br	4239c <strlen+0x74>

000423b4 <__sprint_r>:
   423b4:	30800217 	ldw	r2,8(r6)
   423b8:	defffe04 	addi	sp,sp,-8
   423bc:	dc000015 	stw	r16,0(sp)
   423c0:	dfc00115 	stw	ra,4(sp)
   423c4:	3021883a 	mov	r16,r6
   423c8:	10000226 	beq	r2,zero,423d4 <__sprint_r+0x20>
   423cc:	00465640 	call	46564 <__sfvwrite_r>
   423d0:	80000215 	stw	zero,8(r16)
   423d4:	80000115 	stw	zero,4(r16)
   423d8:	dfc00117 	ldw	ra,4(sp)
   423dc:	dc000017 	ldw	r16,0(sp)
   423e0:	dec00204 	addi	sp,sp,8
   423e4:	f800283a 	ret

000423e8 <___vfprintf_internal_r>:
   423e8:	defeb904 	addi	sp,sp,-1308
   423ec:	dc013d15 	stw	r16,1268(sp)
   423f0:	d9013015 	stw	r4,1216(sp)
   423f4:	dfc14615 	stw	ra,1304(sp)
   423f8:	df014515 	stw	fp,1300(sp)
   423fc:	ddc14415 	stw	r23,1296(sp)
   42400:	dd814315 	stw	r22,1292(sp)
   42404:	dd414215 	stw	r21,1288(sp)
   42408:	dd014115 	stw	r20,1284(sp)
   4240c:	dcc14015 	stw	r19,1280(sp)
   42410:	dc813f15 	stw	r18,1276(sp)
   42414:	dc413e15 	stw	r17,1272(sp)
   42418:	d9412915 	stw	r5,1188(sp)
   4241c:	3021883a 	mov	r16,r6
   42420:	d9c12d15 	stw	r7,1204(sp)
   42424:	0046c500 	call	46c50 <_localeconv_r>
   42428:	10800017 	ldw	r2,0(r2)
   4242c:	d9013017 	ldw	r4,1216(sp)
   42430:	d8013315 	stw	zero,1228(sp)
   42434:	d8813715 	stw	r2,1244(sp)
   42438:	d8013415 	stw	zero,1232(sp)
   4243c:	20000226 	beq	r4,zero,42448 <___vfprintf_internal_r+0x60>
   42440:	20800e17 	ldw	r2,56(r4)
   42444:	10014b26 	beq	r2,zero,42974 <___vfprintf_internal_r+0x58c>
   42448:	d8c12917 	ldw	r3,1188(sp)
   4244c:	1880030b 	ldhu	r2,12(r3)
   42450:	10c0020c 	andi	r3,r2,8
   42454:	18ffffcc 	andi	r3,r3,65535
   42458:	18e0001c 	xori	r3,r3,32768
   4245c:	18e00004 	addi	r3,r3,-32768
   42460:	1800ed26 	beq	r3,zero,42818 <___vfprintf_internal_r+0x430>
   42464:	d9012917 	ldw	r4,1188(sp)
   42468:	20c00417 	ldw	r3,16(r4)
   4246c:	1800ea26 	beq	r3,zero,42818 <___vfprintf_internal_r+0x430>
   42470:	1100068c 	andi	r4,r2,26
   42474:	00c00284 	movi	r3,10
   42478:	20c0f026 	beq	r4,r3,4283c <___vfprintf_internal_r+0x454>
   4247c:	d9010dc4 	addi	r4,sp,1079
   42480:	d8810e04 	addi	r2,sp,1080
   42484:	dc413017 	ldw	r17,1216(sp)
   42488:	d8c00404 	addi	r3,sp,16
   4248c:	d9012615 	stw	r4,1176(sp)
   42490:	1109c83a 	sub	r4,r2,r4
   42494:	d8812715 	stw	r2,1180(sp)
   42498:	d8c11b15 	stw	r3,1132(sp)
   4249c:	d8011d15 	stw	zero,1140(sp)
   424a0:	d8011c15 	stw	zero,1136(sp)
   424a4:	802b883a 	mov	r21,r16
   424a8:	d8013215 	stw	zero,1224(sp)
   424ac:	d8013615 	stw	zero,1240(sp)
   424b0:	d8013515 	stw	zero,1236(sp)
   424b4:	d8012c15 	stw	zero,1200(sp)
   424b8:	1813883a 	mov	r9,r3
   424bc:	d9013915 	stw	r4,1252(sp)
   424c0:	a8800007 	ldb	r2,0(r21)
   424c4:	1002f326 	beq	r2,zero,43094 <___vfprintf_internal_r+0xcac>
   424c8:	00c00944 	movi	r3,37
   424cc:	a825883a 	mov	r18,r21
   424d0:	10c0021e 	bne	r2,r3,424dc <___vfprintf_internal_r+0xf4>
   424d4:	00001406 	br	42528 <___vfprintf_internal_r+0x140>
   424d8:	10c00326 	beq	r2,r3,424e8 <___vfprintf_internal_r+0x100>
   424dc:	94800044 	addi	r18,r18,1
   424e0:	90800007 	ldb	r2,0(r18)
   424e4:	103ffc1e 	bne	r2,zero,424d8 <___vfprintf_internal_r+0xf0>
   424e8:	9561c83a 	sub	r16,r18,r21
   424ec:	80000e26 	beq	r16,zero,42528 <___vfprintf_internal_r+0x140>
   424f0:	da011d17 	ldw	r8,1140(sp)
   424f4:	d8c11c17 	ldw	r3,1136(sp)
   424f8:	4d400015 	stw	r21,0(r9)
   424fc:	4c000115 	stw	r16,4(r9)
   42500:	4411883a 	add	r8,r8,r16
   42504:	18c00044 	addi	r3,r3,1
   42508:	da011d15 	stw	r8,1140(sp)
   4250c:	d8c11c15 	stw	r3,1136(sp)
   42510:	008001c4 	movi	r2,7
   42514:	10c11016 	blt	r2,r3,42958 <___vfprintf_internal_r+0x570>
   42518:	4a400204 	addi	r9,r9,8
   4251c:	d8812c17 	ldw	r2,1200(sp)
   42520:	1405883a 	add	r2,r2,r16
   42524:	d8812c15 	stw	r2,1200(sp)
   42528:	90800007 	ldb	r2,0(r18)
   4252c:	1000ee26 	beq	r2,zero,428e8 <___vfprintf_internal_r+0x500>
   42530:	95400044 	addi	r21,r18,1
   42534:	94800047 	ldb	r18,1(r18)
   42538:	073fffc4 	movi	fp,-1
   4253c:	e007883a 	mov	r3,fp
   42540:	d8012585 	stb	zero,1174(sp)
   42544:	d8012e15 	stw	zero,1208(sp)
   42548:	0021883a 	mov	r16,zero
   4254c:	05001604 	movi	r20,88
   42550:	04c00244 	movi	r19,9
   42554:	4839883a 	mov	fp,r9
   42558:	ad400044 	addi	r21,r21,1
   4255c:	90bff804 	addi	r2,r18,-32
   42560:	a080462e 	bgeu	r20,r2,4267c <___vfprintf_internal_r+0x294>
   42564:	e013883a 	mov	r9,fp
   42568:	9000df26 	beq	r18,zero,428e8 <___vfprintf_internal_r+0x500>
   4256c:	00c00044 	movi	r3,1
   42570:	d8c12815 	stw	r3,1184(sp)
   42574:	dc810405 	stb	r18,1040(sp)
   42578:	d8012585 	stb	zero,1174(sp)
   4257c:	d8c12b15 	stw	r3,1196(sp)
   42580:	dcc10404 	addi	r19,sp,1040
   42584:	d8013115 	stw	zero,1220(sp)
   42588:	80c0008c 	andi	r3,r16,2
   4258c:	d8c12a15 	stw	r3,1192(sp)
   42590:	18000326 	beq	r3,zero,425a0 <___vfprintf_internal_r+0x1b8>
   42594:	d8c12817 	ldw	r3,1184(sp)
   42598:	18c00084 	addi	r3,r3,2
   4259c:	d8c12815 	stw	r3,1184(sp)
   425a0:	80c0210c 	andi	r3,r16,132
   425a4:	d8c12f15 	stw	r3,1212(sp)
   425a8:	1802251e 	bne	r3,zero,42e40 <___vfprintf_internal_r+0xa58>
   425ac:	d9012e17 	ldw	r4,1208(sp)
   425b0:	d8c12817 	ldw	r3,1184(sp)
   425b4:	20edc83a 	sub	r22,r4,r3
   425b8:	0582210e 	bge	zero,r22,42e40 <___vfprintf_internal_r+0xa58>
   425bc:	02800404 	movi	r10,16
   425c0:	da011d17 	ldw	r8,1140(sp)
   425c4:	d8c11c17 	ldw	r3,1136(sp)
   425c8:	05c00174 	movhi	r23,5
   425cc:	bdf84784 	addi	r23,r23,-7906
   425d0:	5580200e 	bge	r10,r22,42654 <___vfprintf_internal_r+0x26c>
   425d4:	dc813815 	stw	r18,1248(sp)
   425d8:	5039883a 	mov	fp,r10
   425dc:	b825883a 	mov	r18,r23
   425e0:	050001c4 	movi	r20,7
   425e4:	b02f883a 	mov	r23,r22
   425e8:	802d883a 	mov	r22,r16
   425ec:	dc012917 	ldw	r16,1188(sp)
   425f0:	00000306 	br	42600 <___vfprintf_internal_r+0x218>
   425f4:	bdfffc04 	addi	r23,r23,-16
   425f8:	4a400204 	addi	r9,r9,8
   425fc:	e5c0110e 	bge	fp,r23,42644 <___vfprintf_internal_r+0x25c>
   42600:	4c800015 	stw	r18,0(r9)
   42604:	4f000115 	stw	fp,4(r9)
   42608:	42000404 	addi	r8,r8,16
   4260c:	18c00044 	addi	r3,r3,1
   42610:	da011d15 	stw	r8,1140(sp)
   42614:	d8c11c15 	stw	r3,1136(sp)
   42618:	a0fff60e 	bge	r20,r3,425f4 <___vfprintf_internal_r+0x20c>
   4261c:	8809883a 	mov	r4,r17
   42620:	800b883a 	mov	r5,r16
   42624:	d9811b04 	addi	r6,sp,1132
   42628:	00423b40 	call	423b4 <__sprint_r>
   4262c:	1000b41e 	bne	r2,zero,42900 <___vfprintf_internal_r+0x518>
   42630:	bdfffc04 	addi	r23,r23,-16
   42634:	da011d17 	ldw	r8,1140(sp)
   42638:	d8c11c17 	ldw	r3,1136(sp)
   4263c:	da400404 	addi	r9,sp,16
   42640:	e5ffef16 	blt	fp,r23,42600 <___vfprintf_internal_r+0x218>
   42644:	b021883a 	mov	r16,r22
   42648:	b82d883a 	mov	r22,r23
   4264c:	902f883a 	mov	r23,r18
   42650:	dc813817 	ldw	r18,1248(sp)
   42654:	4dc00015 	stw	r23,0(r9)
   42658:	4d800115 	stw	r22,4(r9)
   4265c:	4591883a 	add	r8,r8,r22
   42660:	18c00044 	addi	r3,r3,1
   42664:	da011d15 	stw	r8,1140(sp)
   42668:	d8c11c15 	stw	r3,1136(sp)
   4266c:	008001c4 	movi	r2,7
   42670:	10c3fe16 	blt	r2,r3,4366c <___vfprintf_internal_r+0x1284>
   42674:	4a400204 	addi	r9,r9,8
   42678:	0001f306 	br	42e48 <___vfprintf_internal_r+0xa60>
   4267c:	1085883a 	add	r2,r2,r2
   42680:	1085883a 	add	r2,r2,r2
   42684:	01000134 	movhi	r4,4
   42688:	2109a604 	addi	r4,r4,9880
   4268c:	1105883a 	add	r2,r2,r4
   42690:	10800017 	ldw	r2,0(r2)
   42694:	1000683a 	jmp	r2
   42698:	00042d74 	movhi	zero,4277
   4269c:	00042564 	muli	zero,zero,4245
   426a0:	00042564 	muli	zero,zero,4245
   426a4:	00042d8c 	andi	zero,zero,4278
   426a8:	00042564 	muli	zero,zero,4245
   426ac:	00042564 	muli	zero,zero,4245
   426b0:	00042564 	muli	zero,zero,4245
   426b4:	00042564 	muli	zero,zero,4245
   426b8:	00042564 	muli	zero,zero,4245
   426bc:	00042564 	muli	zero,zero,4245
   426c0:	00042c44 	movi	zero,4273
   426c4:	00042dd8 	cmpnei	zero,zero,4279
   426c8:	00042564 	muli	zero,zero,4245
   426cc:	0004280c 	andi	zero,zero,4256
   426d0:	00042bac 	andhi	zero,zero,4270
   426d4:	00042564 	muli	zero,zero,4245
   426d8:	00042d98 	cmpnei	zero,zero,4278
   426dc:	00042da4 	muli	zero,zero,4278
   426e0:	00042da4 	muli	zero,zero,4278
   426e4:	00042da4 	muli	zero,zero,4278
   426e8:	00042da4 	muli	zero,zero,4278
   426ec:	00042da4 	muli	zero,zero,4278
   426f0:	00042da4 	muli	zero,zero,4278
   426f4:	00042da4 	muli	zero,zero,4278
   426f8:	00042da4 	muli	zero,zero,4278
   426fc:	00042da4 	muli	zero,zero,4278
   42700:	00042564 	muli	zero,zero,4245
   42704:	00042564 	muli	zero,zero,4245
   42708:	00042564 	muli	zero,zero,4245
   4270c:	00042564 	muli	zero,zero,4245
   42710:	00042564 	muli	zero,zero,4245
   42714:	00042564 	muli	zero,zero,4245
   42718:	00042564 	muli	zero,zero,4245
   4271c:	00042564 	muli	zero,zero,4245
   42720:	00042564 	muli	zero,zero,4245
   42724:	00042564 	muli	zero,zero,4245
   42728:	0004297c 	xorhi	zero,zero,4261
   4272c:	00042a3c 	xorhi	zero,zero,4264
   42730:	00042564 	muli	zero,zero,4245
   42734:	00042a3c 	xorhi	zero,zero,4264
   42738:	00042564 	muli	zero,zero,4245
   4273c:	00042564 	muli	zero,zero,4245
   42740:	00042564 	muli	zero,zero,4245
   42744:	00042564 	muli	zero,zero,4245
   42748:	00042ad0 	cmplti	zero,zero,4267
   4274c:	00042564 	muli	zero,zero,4245
   42750:	00042564 	muli	zero,zero,4245
   42754:	00042adc 	xori	zero,zero,4267
   42758:	00042564 	muli	zero,zero,4245
   4275c:	00042564 	muli	zero,zero,4245
   42760:	00042564 	muli	zero,zero,4245
   42764:	00042564 	muli	zero,zero,4245
   42768:	00042564 	muli	zero,zero,4245
   4276c:	00042b14 	movui	zero,4268
   42770:	00042564 	muli	zero,zero,4245
   42774:	00042564 	muli	zero,zero,4245
   42778:	00042b50 	cmplti	zero,zero,4269
   4277c:	00042564 	muli	zero,zero,4245
   42780:	00042564 	muli	zero,zero,4245
   42784:	00042564 	muli	zero,zero,4245
   42788:	00042564 	muli	zero,zero,4245
   4278c:	00042564 	muli	zero,zero,4245
   42790:	00042564 	muli	zero,zero,4245
   42794:	00042564 	muli	zero,zero,4245
   42798:	00042564 	muli	zero,zero,4245
   4279c:	00042564 	muli	zero,zero,4245
   427a0:	00042564 	muli	zero,zero,4245
   427a4:	00042de8 	cmpgeui	zero,zero,4279
   427a8:	00042e1c 	xori	zero,zero,4280
   427ac:	00042a3c 	xorhi	zero,zero,4264
   427b0:	00042a3c 	xorhi	zero,zero,4264
   427b4:	00042a3c 	xorhi	zero,zero,4264
   427b8:	00042d68 	cmpgeui	zero,zero,4277
   427bc:	00042e1c 	xori	zero,zero,4280
   427c0:	00042564 	muli	zero,zero,4245
   427c4:	00042564 	muli	zero,zero,4245
   427c8:	00042bf4 	movhi	zero,4271
   427cc:	00042564 	muli	zero,zero,4245
   427d0:	00042c0c 	andi	zero,zero,4272
   427d4:	00042e28 	cmpgeui	zero,zero,4280
   427d8:	00042c6c 	andhi	zero,zero,4273
   427dc:	00042cbc 	xorhi	zero,zero,4274
   427e0:	00042564 	muli	zero,zero,4245
   427e4:	00042cc8 	cmpgei	zero,zero,4275
   427e8:	00042564 	muli	zero,zero,4245
   427ec:	00042e34 	movhi	zero,4280
   427f0:	00042564 	muli	zero,zero,4245
   427f4:	00042564 	muli	zero,zero,4245
   427f8:	00042d2c 	andhi	zero,zero,4276
   427fc:	d9012e17 	ldw	r4,1208(sp)
   42800:	d8812d15 	stw	r2,1204(sp)
   42804:	0109c83a 	sub	r4,zero,r4
   42808:	d9012e15 	stw	r4,1208(sp)
   4280c:	84000114 	ori	r16,r16,4
   42810:	ac800007 	ldb	r18,0(r21)
   42814:	003f5006 	br	42558 <___vfprintf_internal_r+0x170>
   42818:	d9013017 	ldw	r4,1216(sp)
   4281c:	d9412917 	ldw	r5,1188(sp)
   42820:	00442880 	call	44288 <__swsetup_r>
   42824:	10003d1e 	bne	r2,zero,4291c <___vfprintf_internal_r+0x534>
   42828:	d8c12917 	ldw	r3,1188(sp)
   4282c:	1880030b 	ldhu	r2,12(r3)
   42830:	00c00284 	movi	r3,10
   42834:	1100068c 	andi	r4,r2,26
   42838:	20ff101e 	bne	r4,r3,4247c <___vfprintf_internal_r+0x94>
   4283c:	d9012917 	ldw	r4,1188(sp)
   42840:	20c0038b 	ldhu	r3,14(r4)
   42844:	193fffcc 	andi	r4,r3,65535
   42848:	2120001c 	xori	r4,r4,32768
   4284c:	21200004 	addi	r4,r4,-32768
   42850:	203f0a16 	blt	r4,zero,4247c <___vfprintf_internal_r+0x94>
   42854:	d9012917 	ldw	r4,1188(sp)
   42858:	d9c12d17 	ldw	r7,1204(sp)
   4285c:	10bfff4c 	andi	r2,r2,65533
   42860:	22800717 	ldw	r10,28(r4)
   42864:	22400917 	ldw	r9,36(r4)
   42868:	d9013017 	ldw	r4,1216(sp)
   4286c:	02010004 	movi	r8,1024
   42870:	d881070d 	sth	r2,1052(sp)
   42874:	d9410404 	addi	r5,sp,1040
   42878:	d8800404 	addi	r2,sp,16
   4287c:	800d883a 	mov	r6,r16
   42880:	d8c1078d 	sth	r3,1054(sp)
   42884:	da810b15 	stw	r10,1068(sp)
   42888:	da410d15 	stw	r9,1076(sp)
   4288c:	d8810415 	stw	r2,1040(sp)
   42890:	d8810815 	stw	r2,1056(sp)
   42894:	da010615 	stw	r8,1048(sp)
   42898:	da010915 	stw	r8,1060(sp)
   4289c:	d8010a15 	stw	zero,1064(sp)
   428a0:	00423e80 	call	423e8 <___vfprintf_internal_r>
   428a4:	d8812c15 	stw	r2,1200(sp)
   428a8:	10000416 	blt	r2,zero,428bc <___vfprintf_internal_r+0x4d4>
   428ac:	d9013017 	ldw	r4,1216(sp)
   428b0:	d9410404 	addi	r5,sp,1040
   428b4:	0045c540 	call	45c54 <_fflush_r>
   428b8:	1006501e 	bne	r2,zero,441fc <___vfprintf_internal_r+0x1e14>
   428bc:	d881070b 	ldhu	r2,1052(sp)
   428c0:	1080100c 	andi	r2,r2,64
   428c4:	10bfffcc 	andi	r2,r2,65535
   428c8:	10a0001c 	xori	r2,r2,32768
   428cc:	10a00004 	addi	r2,r2,-32768
   428d0:	10001426 	beq	r2,zero,42924 <___vfprintf_internal_r+0x53c>
   428d4:	d8c12917 	ldw	r3,1188(sp)
   428d8:	1880030b 	ldhu	r2,12(r3)
   428dc:	10801014 	ori	r2,r2,64
   428e0:	1880030d 	sth	r2,12(r3)
   428e4:	00000f06 	br	42924 <___vfprintf_internal_r+0x53c>
   428e8:	d8811d17 	ldw	r2,1140(sp)
   428ec:	10000426 	beq	r2,zero,42900 <___vfprintf_internal_r+0x518>
   428f0:	d9013017 	ldw	r4,1216(sp)
   428f4:	d9412917 	ldw	r5,1188(sp)
   428f8:	d9811b04 	addi	r6,sp,1132
   428fc:	00423b40 	call	423b4 <__sprint_r>
   42900:	d8c12917 	ldw	r3,1188(sp)
   42904:	1880030b 	ldhu	r2,12(r3)
   42908:	1080100c 	andi	r2,r2,64
   4290c:	10bfffcc 	andi	r2,r2,65535
   42910:	10a0001c 	xori	r2,r2,32768
   42914:	10a00004 	addi	r2,r2,-32768
   42918:	10000226 	beq	r2,zero,42924 <___vfprintf_internal_r+0x53c>
   4291c:	00bfffc4 	movi	r2,-1
   42920:	d8812c15 	stw	r2,1200(sp)
   42924:	d8812c17 	ldw	r2,1200(sp)
   42928:	dfc14617 	ldw	ra,1304(sp)
   4292c:	df014517 	ldw	fp,1300(sp)
   42930:	ddc14417 	ldw	r23,1296(sp)
   42934:	dd814317 	ldw	r22,1292(sp)
   42938:	dd414217 	ldw	r21,1288(sp)
   4293c:	dd014117 	ldw	r20,1284(sp)
   42940:	dcc14017 	ldw	r19,1280(sp)
   42944:	dc813f17 	ldw	r18,1276(sp)
   42948:	dc413e17 	ldw	r17,1272(sp)
   4294c:	dc013d17 	ldw	r16,1268(sp)
   42950:	dec14704 	addi	sp,sp,1308
   42954:	f800283a 	ret
   42958:	d9412917 	ldw	r5,1188(sp)
   4295c:	8809883a 	mov	r4,r17
   42960:	d9811b04 	addi	r6,sp,1132
   42964:	00423b40 	call	423b4 <__sprint_r>
   42968:	103fe51e 	bne	r2,zero,42900 <___vfprintf_internal_r+0x518>
   4296c:	da400404 	addi	r9,sp,16
   42970:	003eea06 	br	4251c <___vfprintf_internal_r+0x134>
   42974:	0045f100 	call	45f10 <__sinit>
   42978:	003eb306 	br	42448 <___vfprintf_internal_r+0x60>
   4297c:	e013883a 	mov	r9,fp
   42980:	84000414 	ori	r16,r16,16
   42984:	1839883a 	mov	fp,r3
   42988:	8080080c 	andi	r2,r16,32
   4298c:	10034426 	beq	r2,zero,436a0 <___vfprintf_internal_r+0x12b8>
   42990:	d8c12d17 	ldw	r3,1204(sp)
   42994:	18800117 	ldw	r2,4(r3)
   42998:	1dc00017 	ldw	r23,0(r3)
   4299c:	18c00204 	addi	r3,r3,8
   429a0:	d8c12d15 	stw	r3,1204(sp)
   429a4:	102d883a 	mov	r22,r2
   429a8:	1003020e 	bge	r2,zero,435b4 <___vfprintf_internal_r+0x11cc>
   429ac:	05efc83a 	sub	r23,zero,r23
   429b0:	b804c03a 	cmpne	r2,r23,zero
   429b4:	05adc83a 	sub	r22,zero,r22
   429b8:	b0adc83a 	sub	r22,r22,r2
   429bc:	00800b44 	movi	r2,45
   429c0:	d8812585 	stb	r2,1174(sp)
   429c4:	00c00044 	movi	r3,1
   429c8:	bd84b03a 	or	r2,r23,r22
   429cc:	e0000216 	blt	fp,zero,429d8 <___vfprintf_internal_r+0x5f0>
   429d0:	013fdfc4 	movi	r4,-129
   429d4:	8120703a 	and	r16,r16,r4
   429d8:	1001cc1e 	bne	r2,zero,4310c <___vfprintf_internal_r+0xd24>
   429dc:	e001cb1e 	bne	fp,zero,4310c <___vfprintf_internal_r+0xd24>
   429e0:	18c03fcc 	andi	r3,r3,255
   429e4:	1802ca1e 	bne	r3,zero,43510 <___vfprintf_internal_r+0x1128>
   429e8:	8080004c 	andi	r2,r16,1
   429ec:	1002c826 	beq	r2,zero,43510 <___vfprintf_internal_r+0x1128>
   429f0:	d8c13917 	ldw	r3,1252(sp)
   429f4:	00800c04 	movi	r2,48
   429f8:	d8810dc5 	stb	r2,1079(sp)
   429fc:	d8c12b15 	stw	r3,1196(sp)
   42a00:	dcc10dc4 	addi	r19,sp,1079
   42a04:	d8812b17 	ldw	r2,1196(sp)
   42a08:	d8812815 	stw	r2,1184(sp)
   42a0c:	1700010e 	bge	r2,fp,42a14 <___vfprintf_internal_r+0x62c>
   42a10:	df012815 	stw	fp,1184(sp)
   42a14:	d8812583 	ldbu	r2,1174(sp)
   42a18:	df013115 	stw	fp,1220(sp)
   42a1c:	10803fcc 	andi	r2,r2,255
   42a20:	1080201c 	xori	r2,r2,128
   42a24:	10bfe004 	addi	r2,r2,-128
   42a28:	103ed726 	beq	r2,zero,42588 <___vfprintf_internal_r+0x1a0>
   42a2c:	d8c12817 	ldw	r3,1184(sp)
   42a30:	18c00044 	addi	r3,r3,1
   42a34:	d8c12815 	stw	r3,1184(sp)
   42a38:	003ed306 	br	42588 <___vfprintf_internal_r+0x1a0>
   42a3c:	8080020c 	andi	r2,r16,8
   42a40:	e013883a 	mov	r9,fp
   42a44:	1839883a 	mov	fp,r3
   42a48:	1003a626 	beq	r2,zero,438e4 <___vfprintf_internal_r+0x14fc>
   42a4c:	d9012d17 	ldw	r4,1204(sp)
   42a50:	25800017 	ldw	r22,0(r4)
   42a54:	25000117 	ldw	r20,4(r4)
   42a58:	21000204 	addi	r4,r4,8
   42a5c:	d9012d15 	stw	r4,1204(sp)
   42a60:	dd813315 	stw	r22,1228(sp)
   42a64:	dd013415 	stw	r20,1232(sp)
   42a68:	b009883a 	mov	r4,r22
   42a6c:	a00b883a 	mov	r5,r20
   42a70:	da413c15 	stw	r9,1264(sp)
   42a74:	00489180 	call	48918 <__isinfd>
   42a78:	da413c17 	ldw	r9,1264(sp)
   42a7c:	b009883a 	mov	r4,r22
   42a80:	a00b883a 	mov	r5,r20
   42a84:	10041d26 	beq	r2,zero,43afc <___vfprintf_internal_r+0x1714>
   42a88:	000d883a 	mov	r6,zero
   42a8c:	000f883a 	mov	r7,zero
   42a90:	004a6880 	call	4a688 <__ltdf2>
   42a94:	da413c17 	ldw	r9,1264(sp)
   42a98:	1004da16 	blt	r2,zero,43e04 <___vfprintf_internal_r+0x1a1c>
   42a9c:	d8812583 	ldbu	r2,1174(sp)
   42aa0:	00c011c4 	movi	r3,71
   42aa4:	1c83d116 	blt	r3,r18,439ec <___vfprintf_internal_r+0x1604>
   42aa8:	04c00174 	movhi	r19,5
   42aac:	9cf83704 	addi	r19,r19,-7972
   42ab0:	00c000c4 	movi	r3,3
   42ab4:	d8c12815 	stw	r3,1184(sp)
   42ab8:	00ffdfc4 	movi	r3,-129
   42abc:	80e0703a 	and	r16,r16,r3
   42ac0:	d8c12817 	ldw	r3,1184(sp)
   42ac4:	d8013115 	stw	zero,1220(sp)
   42ac8:	d8c12b15 	stw	r3,1196(sp)
   42acc:	003fd306 	br	42a1c <___vfprintf_internal_r+0x634>
   42ad0:	84000214 	ori	r16,r16,8
   42ad4:	ac800007 	ldb	r18,0(r21)
   42ad8:	003e9f06 	br	42558 <___vfprintf_internal_r+0x170>
   42adc:	e013883a 	mov	r9,fp
   42ae0:	84000414 	ori	r16,r16,16
   42ae4:	1839883a 	mov	fp,r3
   42ae8:	8080080c 	andi	r2,r16,32
   42aec:	10031d26 	beq	r2,zero,43764 <___vfprintf_internal_r+0x137c>
   42af0:	d8812d17 	ldw	r2,1204(sp)
   42af4:	0007883a 	mov	r3,zero
   42af8:	15c00017 	ldw	r23,0(r2)
   42afc:	15800117 	ldw	r22,4(r2)
   42b00:	10800204 	addi	r2,r2,8
   42b04:	d8812d15 	stw	r2,1204(sp)
   42b08:	d8012585 	stb	zero,1174(sp)
   42b0c:	bd84b03a 	or	r2,r23,r22
   42b10:	003fae06 	br	429cc <___vfprintf_internal_r+0x5e4>
   42b14:	e013883a 	mov	r9,fp
   42b18:	84000414 	ori	r16,r16,16
   42b1c:	1839883a 	mov	fp,r3
   42b20:	8080080c 	andi	r2,r16,32
   42b24:	1002e726 	beq	r2,zero,436c4 <___vfprintf_internal_r+0x12dc>
   42b28:	d8c12d17 	ldw	r3,1204(sp)
   42b2c:	d9012d17 	ldw	r4,1204(sp)
   42b30:	1dc00017 	ldw	r23,0(r3)
   42b34:	1d800117 	ldw	r22,4(r3)
   42b38:	21000204 	addi	r4,r4,8
   42b3c:	00c00044 	movi	r3,1
   42b40:	d9012d15 	stw	r4,1204(sp)
   42b44:	bd84b03a 	or	r2,r23,r22
   42b48:	d8012585 	stb	zero,1174(sp)
   42b4c:	003f9f06 	br	429cc <___vfprintf_internal_r+0x5e4>
   42b50:	e013883a 	mov	r9,fp
   42b54:	1839883a 	mov	fp,r3
   42b58:	00c00174 	movhi	r3,5
   42b5c:	18f83b04 	addi	r3,r3,-7956
   42b60:	d8c13615 	stw	r3,1240(sp)
   42b64:	8080080c 	andi	r2,r16,32
   42b68:	10007726 	beq	r2,zero,42d48 <___vfprintf_internal_r+0x960>
   42b6c:	d9012d17 	ldw	r4,1204(sp)
   42b70:	25c00017 	ldw	r23,0(r4)
   42b74:	25800117 	ldw	r22,4(r4)
   42b78:	21000204 	addi	r4,r4,8
   42b7c:	d9012d15 	stw	r4,1204(sp)
   42b80:	8080004c 	andi	r2,r16,1
   42b84:	1002c226 	beq	r2,zero,43690 <___vfprintf_internal_r+0x12a8>
   42b88:	bd84b03a 	or	r2,r23,r22
   42b8c:	10035d26 	beq	r2,zero,43904 <___vfprintf_internal_r+0x151c>
   42b90:	00c00c04 	movi	r3,48
   42b94:	d8c12505 	stb	r3,1172(sp)
   42b98:	dc812545 	stb	r18,1173(sp)
   42b9c:	84000094 	ori	r16,r16,2
   42ba0:	00c00084 	movi	r3,2
   42ba4:	d8012585 	stb	zero,1174(sp)
   42ba8:	003f8806 	br	429cc <___vfprintf_internal_r+0x5e4>
   42bac:	ac800007 	ldb	r18,0(r21)
   42bb0:	00c00a84 	movi	r3,42
   42bb4:	adc00044 	addi	r23,r21,1
   42bb8:	90c57526 	beq	r18,r3,44190 <___vfprintf_internal_r+0x1da8>
   42bbc:	95bff404 	addi	r22,r18,-48
   42bc0:	0009883a 	mov	r4,zero
   42bc4:	9d84ff36 	bltu	r19,r22,43fc4 <___vfprintf_internal_r+0x1bdc>
   42bc8:	01400284 	movi	r5,10
   42bcc:	00419f00 	call	419f0 <__mulsi3>
   42bd0:	bc800007 	ldb	r18,0(r23)
   42bd4:	b089883a 	add	r4,r22,r2
   42bd8:	bdc00044 	addi	r23,r23,1
   42bdc:	95bff404 	addi	r22,r18,-48
   42be0:	9dbff92e 	bgeu	r19,r22,42bc8 <___vfprintf_internal_r+0x7e0>
   42be4:	2007883a 	mov	r3,r4
   42be8:	20044316 	blt	r4,zero,43cf8 <___vfprintf_internal_r+0x1910>
   42bec:	b82b883a 	mov	r21,r23
   42bf0:	003e5a06 	br	4255c <___vfprintf_internal_r+0x174>
   42bf4:	ac800007 	ldb	r18,0(r21)
   42bf8:	01001b04 	movi	r4,108
   42bfc:	a805883a 	mov	r2,r21
   42c00:	91045526 	beq	r18,r4,43d58 <___vfprintf_internal_r+0x1970>
   42c04:	84000414 	ori	r16,r16,16
   42c08:	003e5306 	br	42558 <___vfprintf_internal_r+0x170>
   42c0c:	8080080c 	andi	r2,r16,32
   42c10:	e013883a 	mov	r9,fp
   42c14:	10034026 	beq	r2,zero,43918 <___vfprintf_internal_r+0x1530>
   42c18:	d9012d17 	ldw	r4,1204(sp)
   42c1c:	20800017 	ldw	r2,0(r4)
   42c20:	d9012c17 	ldw	r4,1200(sp)
   42c24:	2007d7fa 	srai	r3,r4,31
   42c28:	d9012d17 	ldw	r4,1204(sp)
   42c2c:	10c00115 	stw	r3,4(r2)
   42c30:	21000104 	addi	r4,r4,4
   42c34:	d9012d15 	stw	r4,1204(sp)
   42c38:	d9012c17 	ldw	r4,1200(sp)
   42c3c:	11000015 	stw	r4,0(r2)
   42c40:	003e1f06 	br	424c0 <___vfprintf_internal_r+0xd8>
   42c44:	d9012d17 	ldw	r4,1204(sp)
   42c48:	21000017 	ldw	r4,0(r4)
   42c4c:	d9012e15 	stw	r4,1208(sp)
   42c50:	d9012d17 	ldw	r4,1204(sp)
   42c54:	20800104 	addi	r2,r4,4
   42c58:	d9012e17 	ldw	r4,1208(sp)
   42c5c:	203ee716 	blt	r4,zero,427fc <___vfprintf_internal_r+0x414>
   42c60:	d8812d15 	stw	r2,1204(sp)
   42c64:	ac800007 	ldb	r18,0(r21)
   42c68:	003e3b06 	br	42558 <___vfprintf_internal_r+0x170>
   42c6c:	e013883a 	mov	r9,fp
   42c70:	1839883a 	mov	fp,r3
   42c74:	d8c12d17 	ldw	r3,1204(sp)
   42c78:	00800c04 	movi	r2,48
   42c7c:	01000174 	movhi	r4,5
   42c80:	21384004 	addi	r4,r4,-7936
   42c84:	1dc00017 	ldw	r23,0(r3)
   42c88:	18c00104 	addi	r3,r3,4
   42c8c:	d8812505 	stb	r2,1172(sp)
   42c90:	00801e04 	movi	r2,120
   42c94:	d8812545 	stb	r2,1173(sp)
   42c98:	d8c12d15 	stw	r3,1204(sp)
   42c9c:	002d883a 	mov	r22,zero
   42ca0:	84000094 	ori	r16,r16,2
   42ca4:	d9013615 	stw	r4,1240(sp)
   42ca8:	00c00084 	movi	r3,2
   42cac:	04801e04 	movi	r18,120
   42cb0:	b805883a 	mov	r2,r23
   42cb4:	d8012585 	stb	zero,1174(sp)
   42cb8:	003f4406 	br	429cc <___vfprintf_internal_r+0x5e4>
   42cbc:	84000814 	ori	r16,r16,32
   42cc0:	ac800007 	ldb	r18,0(r21)
   42cc4:	003e2406 	br	42558 <___vfprintf_internal_r+0x170>
   42cc8:	d8812d17 	ldw	r2,1204(sp)
   42ccc:	d8012585 	stb	zero,1174(sp)
   42cd0:	e013883a 	mov	r9,fp
   42cd4:	14c00017 	ldw	r19,0(r2)
   42cd8:	1839883a 	mov	fp,r3
   42cdc:	15c00104 	addi	r23,r2,4
   42ce0:	98045526 	beq	r19,zero,43e38 <___vfprintf_internal_r+0x1a50>
   42ce4:	9809883a 	mov	r4,r19
   42ce8:	18043116 	blt	r3,zero,43db0 <___vfprintf_internal_r+0x19c8>
   42cec:	000b883a 	mov	r5,zero
   42cf0:	180d883a 	mov	r6,r3
   42cf4:	da413c15 	stw	r9,1264(sp)
   42cf8:	0046e2c0 	call	46e2c <memchr>
   42cfc:	da413c17 	ldw	r9,1264(sp)
   42d00:	10047a26 	beq	r2,zero,43eec <___vfprintf_internal_r+0x1b04>
   42d04:	14c5c83a 	sub	r2,r2,r19
   42d08:	d8812b15 	stw	r2,1196(sp)
   42d0c:	e083d40e 	bge	fp,r2,43c60 <___vfprintf_internal_r+0x1878>
   42d10:	df012815 	stw	fp,1184(sp)
   42d14:	e004e416 	blt	fp,zero,440a8 <___vfprintf_internal_r+0x1cc0>
   42d18:	d8812583 	ldbu	r2,1174(sp)
   42d1c:	df012b15 	stw	fp,1196(sp)
   42d20:	ddc12d15 	stw	r23,1204(sp)
   42d24:	d8013115 	stw	zero,1220(sp)
   42d28:	003f3c06 	br	42a1c <___vfprintf_internal_r+0x634>
   42d2c:	00800174 	movhi	r2,5
   42d30:	10b84004 	addi	r2,r2,-7936
   42d34:	d8813615 	stw	r2,1240(sp)
   42d38:	8080080c 	andi	r2,r16,32
   42d3c:	e013883a 	mov	r9,fp
   42d40:	1839883a 	mov	fp,r3
   42d44:	103f891e 	bne	r2,zero,42b6c <___vfprintf_internal_r+0x784>
   42d48:	8080040c 	andi	r2,r16,16
   42d4c:	1002c326 	beq	r2,zero,4385c <___vfprintf_internal_r+0x1474>
   42d50:	d8812d17 	ldw	r2,1204(sp)
   42d54:	002d883a 	mov	r22,zero
   42d58:	15c00017 	ldw	r23,0(r2)
   42d5c:	10800104 	addi	r2,r2,4
   42d60:	d8812d15 	stw	r2,1204(sp)
   42d64:	003f8606 	br	42b80 <___vfprintf_internal_r+0x798>
   42d68:	84001014 	ori	r16,r16,64
   42d6c:	ac800007 	ldb	r18,0(r21)
   42d70:	003df906 	br	42558 <___vfprintf_internal_r+0x170>
   42d74:	d8812587 	ldb	r2,1174(sp)
   42d78:	1002e51e 	bne	r2,zero,43910 <___vfprintf_internal_r+0x1528>
   42d7c:	00800804 	movi	r2,32
   42d80:	d8812585 	stb	r2,1174(sp)
   42d84:	ac800007 	ldb	r18,0(r21)
   42d88:	003df306 	br	42558 <___vfprintf_internal_r+0x170>
   42d8c:	84000054 	ori	r16,r16,1
   42d90:	ac800007 	ldb	r18,0(r21)
   42d94:	003df006 	br	42558 <___vfprintf_internal_r+0x170>
   42d98:	84002014 	ori	r16,r16,128
   42d9c:	ac800007 	ldb	r18,0(r21)
   42da0:	003ded06 	br	42558 <___vfprintf_internal_r+0x170>
   42da4:	0009883a 	mov	r4,zero
   42da8:	95bff404 	addi	r22,r18,-48
   42dac:	182f883a 	mov	r23,r3
   42db0:	01400284 	movi	r5,10
   42db4:	00419f00 	call	419f0 <__mulsi3>
   42db8:	ac800007 	ldb	r18,0(r21)
   42dbc:	1589883a 	add	r4,r2,r22
   42dc0:	ad400044 	addi	r21,r21,1
   42dc4:	95bff404 	addi	r22,r18,-48
   42dc8:	9dbff92e 	bgeu	r19,r22,42db0 <___vfprintf_internal_r+0x9c8>
   42dcc:	b807883a 	mov	r3,r23
   42dd0:	d9012e15 	stw	r4,1208(sp)
   42dd4:	003de106 	br	4255c <___vfprintf_internal_r+0x174>
   42dd8:	00800ac4 	movi	r2,43
   42ddc:	d8812585 	stb	r2,1174(sp)
   42de0:	ac800007 	ldb	r18,0(r21)
   42de4:	003ddc06 	br	42558 <___vfprintf_internal_r+0x170>
   42de8:	d8c12d17 	ldw	r3,1204(sp)
   42dec:	d9012d17 	ldw	r4,1204(sp)
   42df0:	e013883a 	mov	r9,fp
   42df4:	18800017 	ldw	r2,0(r3)
   42df8:	21000104 	addi	r4,r4,4
   42dfc:	00c00044 	movi	r3,1
   42e00:	d8c12815 	stw	r3,1184(sp)
   42e04:	d8012585 	stb	zero,1174(sp)
   42e08:	d8810405 	stb	r2,1040(sp)
   42e0c:	d9012d15 	stw	r4,1204(sp)
   42e10:	d8c12b15 	stw	r3,1196(sp)
   42e14:	dcc10404 	addi	r19,sp,1040
   42e18:	003dda06 	br	42584 <___vfprintf_internal_r+0x19c>
   42e1c:	e013883a 	mov	r9,fp
   42e20:	1839883a 	mov	fp,r3
   42e24:	003ed806 	br	42988 <___vfprintf_internal_r+0x5a0>
   42e28:	e013883a 	mov	r9,fp
   42e2c:	1839883a 	mov	fp,r3
   42e30:	003f2d06 	br	42ae8 <___vfprintf_internal_r+0x700>
   42e34:	e013883a 	mov	r9,fp
   42e38:	1839883a 	mov	fp,r3
   42e3c:	003f3806 	br	42b20 <___vfprintf_internal_r+0x738>
   42e40:	da011d17 	ldw	r8,1140(sp)
   42e44:	d8c11c17 	ldw	r3,1136(sp)
   42e48:	d8812587 	ldb	r2,1174(sp)
   42e4c:	10000b26 	beq	r2,zero,42e7c <___vfprintf_internal_r+0xa94>
   42e50:	d8812584 	addi	r2,sp,1174
   42e54:	48800015 	stw	r2,0(r9)
   42e58:	00800044 	movi	r2,1
   42e5c:	48800115 	stw	r2,4(r9)
   42e60:	4091883a 	add	r8,r8,r2
   42e64:	1887883a 	add	r3,r3,r2
   42e68:	da011d15 	stw	r8,1140(sp)
   42e6c:	d8c11c15 	stw	r3,1136(sp)
   42e70:	008001c4 	movi	r2,7
   42e74:	10c18e16 	blt	r2,r3,434b0 <___vfprintf_internal_r+0x10c8>
   42e78:	4a400204 	addi	r9,r9,8
   42e7c:	d9012a17 	ldw	r4,1192(sp)
   42e80:	20000b26 	beq	r4,zero,42eb0 <___vfprintf_internal_r+0xac8>
   42e84:	d8812504 	addi	r2,sp,1172
   42e88:	48800015 	stw	r2,0(r9)
   42e8c:	00800084 	movi	r2,2
   42e90:	48800115 	stw	r2,4(r9)
   42e94:	4091883a 	add	r8,r8,r2
   42e98:	18c00044 	addi	r3,r3,1
   42e9c:	da011d15 	stw	r8,1140(sp)
   42ea0:	d8c11c15 	stw	r3,1136(sp)
   42ea4:	008001c4 	movi	r2,7
   42ea8:	10c17816 	blt	r2,r3,4348c <___vfprintf_internal_r+0x10a4>
   42eac:	4a400204 	addi	r9,r9,8
   42eb0:	d9012f17 	ldw	r4,1212(sp)
   42eb4:	00802004 	movi	r2,128
   42eb8:	2080fc26 	beq	r4,r2,432ac <___vfprintf_internal_r+0xec4>
   42ebc:	d8813117 	ldw	r2,1220(sp)
   42ec0:	d9012b17 	ldw	r4,1196(sp)
   42ec4:	112fc83a 	sub	r23,r2,r4
   42ec8:	05c02a0e 	bge	zero,r23,42f74 <___vfprintf_internal_r+0xb8c>
   42ecc:	07000404 	movi	fp,16
   42ed0:	05000174 	movhi	r20,5
   42ed4:	a5384b84 	addi	r20,r20,-7890
   42ed8:	e5c01d0e 	bge	fp,r23,42f50 <___vfprintf_internal_r+0xb68>
   42edc:	dc812a15 	stw	r18,1192(sp)
   42ee0:	058001c4 	movi	r22,7
   42ee4:	a025883a 	mov	r18,r20
   42ee8:	8029883a 	mov	r20,r16
   42eec:	dc012917 	ldw	r16,1188(sp)
   42ef0:	00000306 	br	42f00 <___vfprintf_internal_r+0xb18>
   42ef4:	bdfffc04 	addi	r23,r23,-16
   42ef8:	4a400204 	addi	r9,r9,8
   42efc:	e5c0110e 	bge	fp,r23,42f44 <___vfprintf_internal_r+0xb5c>
   42f00:	4c800015 	stw	r18,0(r9)
   42f04:	4f000115 	stw	fp,4(r9)
   42f08:	42000404 	addi	r8,r8,16
   42f0c:	18c00044 	addi	r3,r3,1
   42f10:	da011d15 	stw	r8,1140(sp)
   42f14:	d8c11c15 	stw	r3,1136(sp)
   42f18:	b0fff60e 	bge	r22,r3,42ef4 <___vfprintf_internal_r+0xb0c>
   42f1c:	8809883a 	mov	r4,r17
   42f20:	800b883a 	mov	r5,r16
   42f24:	d9811b04 	addi	r6,sp,1132
   42f28:	00423b40 	call	423b4 <__sprint_r>
   42f2c:	103e741e 	bne	r2,zero,42900 <___vfprintf_internal_r+0x518>
   42f30:	bdfffc04 	addi	r23,r23,-16
   42f34:	da011d17 	ldw	r8,1140(sp)
   42f38:	d8c11c17 	ldw	r3,1136(sp)
   42f3c:	da400404 	addi	r9,sp,16
   42f40:	e5ffef16 	blt	fp,r23,42f00 <___vfprintf_internal_r+0xb18>
   42f44:	a021883a 	mov	r16,r20
   42f48:	9029883a 	mov	r20,r18
   42f4c:	dc812a17 	ldw	r18,1192(sp)
   42f50:	4d000015 	stw	r20,0(r9)
   42f54:	4dc00115 	stw	r23,4(r9)
   42f58:	45d1883a 	add	r8,r8,r23
   42f5c:	18c00044 	addi	r3,r3,1
   42f60:	da011d15 	stw	r8,1140(sp)
   42f64:	d8c11c15 	stw	r3,1136(sp)
   42f68:	008001c4 	movi	r2,7
   42f6c:	10c13e16 	blt	r2,r3,43468 <___vfprintf_internal_r+0x1080>
   42f70:	4a400204 	addi	r9,r9,8
   42f74:	8080400c 	andi	r2,r16,256
   42f78:	1000831e 	bne	r2,zero,43188 <___vfprintf_internal_r+0xda0>
   42f7c:	d8812b17 	ldw	r2,1196(sp)
   42f80:	4cc00015 	stw	r19,0(r9)
   42f84:	48800115 	stw	r2,4(r9)
   42f88:	4091883a 	add	r8,r8,r2
   42f8c:	18c00044 	addi	r3,r3,1
   42f90:	da011d15 	stw	r8,1140(sp)
   42f94:	d8c11c15 	stw	r3,1136(sp)
   42f98:	008001c4 	movi	r2,7
   42f9c:	10c05316 	blt	r2,r3,430ec <___vfprintf_internal_r+0xd04>
   42fa0:	4a400204 	addi	r9,r9,8
   42fa4:	8400010c 	andi	r16,r16,4
   42fa8:	80002e26 	beq	r16,zero,43064 <___vfprintf_internal_r+0xc7c>
   42fac:	d8812e17 	ldw	r2,1208(sp)
   42fb0:	d8c12817 	ldw	r3,1184(sp)
   42fb4:	10e1c83a 	sub	r16,r2,r3
   42fb8:	04002a0e 	bge	zero,r16,43064 <___vfprintf_internal_r+0xc7c>
   42fbc:	04800404 	movi	r18,16
   42fc0:	d8c11c17 	ldw	r3,1136(sp)
   42fc4:	05c00174 	movhi	r23,5
   42fc8:	bdf84784 	addi	r23,r23,-7906
   42fcc:	9400170e 	bge	r18,r16,4302c <___vfprintf_internal_r+0xc44>
   42fd0:	04c001c4 	movi	r19,7
   42fd4:	dd012917 	ldw	r20,1188(sp)
   42fd8:	00000306 	br	42fe8 <___vfprintf_internal_r+0xc00>
   42fdc:	843ffc04 	addi	r16,r16,-16
   42fe0:	4a400204 	addi	r9,r9,8
   42fe4:	9400110e 	bge	r18,r16,4302c <___vfprintf_internal_r+0xc44>
   42fe8:	4dc00015 	stw	r23,0(r9)
   42fec:	4c800115 	stw	r18,4(r9)
   42ff0:	42000404 	addi	r8,r8,16
   42ff4:	18c00044 	addi	r3,r3,1
   42ff8:	da011d15 	stw	r8,1140(sp)
   42ffc:	d8c11c15 	stw	r3,1136(sp)
   43000:	98fff60e 	bge	r19,r3,42fdc <___vfprintf_internal_r+0xbf4>
   43004:	8809883a 	mov	r4,r17
   43008:	a00b883a 	mov	r5,r20
   4300c:	d9811b04 	addi	r6,sp,1132
   43010:	00423b40 	call	423b4 <__sprint_r>
   43014:	103e3a1e 	bne	r2,zero,42900 <___vfprintf_internal_r+0x518>
   43018:	843ffc04 	addi	r16,r16,-16
   4301c:	da011d17 	ldw	r8,1140(sp)
   43020:	d8c11c17 	ldw	r3,1136(sp)
   43024:	da400404 	addi	r9,sp,16
   43028:	943fef16 	blt	r18,r16,42fe8 <___vfprintf_internal_r+0xc00>
   4302c:	4dc00015 	stw	r23,0(r9)
   43030:	4c000115 	stw	r16,4(r9)
   43034:	8211883a 	add	r8,r16,r8
   43038:	18c00044 	addi	r3,r3,1
   4303c:	da011d15 	stw	r8,1140(sp)
   43040:	d8c11c15 	stw	r3,1136(sp)
   43044:	008001c4 	movi	r2,7
   43048:	10c0060e 	bge	r2,r3,43064 <___vfprintf_internal_r+0xc7c>
   4304c:	d9412917 	ldw	r5,1188(sp)
   43050:	8809883a 	mov	r4,r17
   43054:	d9811b04 	addi	r6,sp,1132
   43058:	00423b40 	call	423b4 <__sprint_r>
   4305c:	103e281e 	bne	r2,zero,42900 <___vfprintf_internal_r+0x518>
   43060:	da011d17 	ldw	r8,1140(sp)
   43064:	dd012817 	ldw	r20,1184(sp)
   43068:	d9012e17 	ldw	r4,1208(sp)
   4306c:	a100010e 	bge	r20,r4,43074 <___vfprintf_internal_r+0xc8c>
   43070:	2029883a 	mov	r20,r4
   43074:	d8812c17 	ldw	r2,1200(sp)
   43078:	1505883a 	add	r2,r2,r20
   4307c:	d8812c15 	stw	r2,1200(sp)
   43080:	4000b91e 	bne	r8,zero,43368 <___vfprintf_internal_r+0xf80>
   43084:	d8011c15 	stw	zero,1136(sp)
   43088:	a8800007 	ldb	r2,0(r21)
   4308c:	da400404 	addi	r9,sp,16
   43090:	103d0d1e 	bne	r2,zero,424c8 <___vfprintf_internal_r+0xe0>
   43094:	a825883a 	mov	r18,r21
   43098:	003d2306 	br	42528 <___vfprintf_internal_r+0x140>
   4309c:	d9412917 	ldw	r5,1188(sp)
   430a0:	8809883a 	mov	r4,r17
   430a4:	d9811b04 	addi	r6,sp,1132
   430a8:	00423b40 	call	423b4 <__sprint_r>
   430ac:	103e141e 	bne	r2,zero,42900 <___vfprintf_internal_r+0x518>
   430b0:	da011d17 	ldw	r8,1140(sp)
   430b4:	da400404 	addi	r9,sp,16
   430b8:	8080004c 	andi	r2,r16,1
   430bc:	103fb926 	beq	r2,zero,42fa4 <___vfprintf_internal_r+0xbbc>
   430c0:	d8c11c17 	ldw	r3,1136(sp)
   430c4:	d9013717 	ldw	r4,1244(sp)
   430c8:	00800044 	movi	r2,1
   430cc:	48800115 	stw	r2,4(r9)
   430d0:	49000015 	stw	r4,0(r9)
   430d4:	4091883a 	add	r8,r8,r2
   430d8:	1887883a 	add	r3,r3,r2
   430dc:	da011d15 	stw	r8,1140(sp)
   430e0:	d8c11c15 	stw	r3,1136(sp)
   430e4:	008001c4 	movi	r2,7
   430e8:	10ffad0e 	bge	r2,r3,42fa0 <___vfprintf_internal_r+0xbb8>
   430ec:	d9412917 	ldw	r5,1188(sp)
   430f0:	8809883a 	mov	r4,r17
   430f4:	d9811b04 	addi	r6,sp,1132
   430f8:	00423b40 	call	423b4 <__sprint_r>
   430fc:	103e001e 	bne	r2,zero,42900 <___vfprintf_internal_r+0x518>
   43100:	da400404 	addi	r9,sp,16
   43104:	da011d17 	ldw	r8,1140(sp)
   43108:	003fa606 	br	42fa4 <___vfprintf_internal_r+0xbbc>
   4310c:	18803fcc 	andi	r2,r3,255
   43110:	00c00044 	movi	r3,1
   43114:	10c10126 	beq	r2,r3,4351c <___vfprintf_internal_r+0x1134>
   43118:	00c00084 	movi	r3,2
   4311c:	10c0ed26 	beq	r2,r3,434d4 <___vfprintf_internal_r+0x10ec>
   43120:	d8c10dc4 	addi	r3,sp,1079
   43124:	b808d0fa 	srli	r4,r23,3
   43128:	b00a977a 	slli	r5,r22,29
   4312c:	b02cd0fa 	srli	r22,r22,3
   43130:	bdc001cc 	andi	r23,r23,7
   43134:	b8800c04 	addi	r2,r23,48
   43138:	292eb03a 	or	r23,r5,r4
   4313c:	18800005 	stb	r2,0(r3)
   43140:	bd88b03a 	or	r4,r23,r22
   43144:	1827883a 	mov	r19,r3
   43148:	18ffffc4 	addi	r3,r3,-1
   4314c:	203ff51e 	bne	r4,zero,43124 <___vfprintf_internal_r+0xd3c>
   43150:	8100004c 	andi	r4,r16,1
   43154:	980b883a 	mov	r5,r19
   43158:	20000726 	beq	r4,zero,43178 <___vfprintf_internal_r+0xd90>
   4315c:	10803fcc 	andi	r2,r2,255
   43160:	1080201c 	xori	r2,r2,128
   43164:	10bfe004 	addi	r2,r2,-128
   43168:	01000c04 	movi	r4,48
   4316c:	11000226 	beq	r2,r4,43178 <___vfprintf_internal_r+0xd90>
   43170:	1827883a 	mov	r19,r3
   43174:	293fffc5 	stb	r4,-1(r5)
   43178:	d8812717 	ldw	r2,1180(sp)
   4317c:	14c5c83a 	sub	r2,r2,r19
   43180:	d8812b15 	stw	r2,1196(sp)
   43184:	003e1f06 	br	42a04 <___vfprintf_internal_r+0x61c>
   43188:	00801944 	movi	r2,101
   4318c:	14807c0e 	bge	r2,r18,43380 <___vfprintf_internal_r+0xf98>
   43190:	d9013317 	ldw	r4,1228(sp)
   43194:	d9413417 	ldw	r5,1232(sp)
   43198:	000d883a 	mov	r6,zero
   4319c:	000f883a 	mov	r7,zero
   431a0:	d8c13b15 	stw	r3,1260(sp)
   431a4:	da013a15 	stw	r8,1256(sp)
   431a8:	da413c15 	stw	r9,1264(sp)
   431ac:	004a5080 	call	4a508 <__eqdf2>
   431b0:	d8c13b17 	ldw	r3,1260(sp)
   431b4:	da013a17 	ldw	r8,1256(sp)
   431b8:	da413c17 	ldw	r9,1264(sp)
   431bc:	1001001e 	bne	r2,zero,435c0 <___vfprintf_internal_r+0x11d8>
   431c0:	00800174 	movhi	r2,5
   431c4:	10b84704 	addi	r2,r2,-7908
   431c8:	48800015 	stw	r2,0(r9)
   431cc:	00800044 	movi	r2,1
   431d0:	48800115 	stw	r2,4(r9)
   431d4:	4091883a 	add	r8,r8,r2
   431d8:	1887883a 	add	r3,r3,r2
   431dc:	da011d15 	stw	r8,1140(sp)
   431e0:	d8c11c15 	stw	r3,1136(sp)
   431e4:	008001c4 	movi	r2,7
   431e8:	10c20316 	blt	r2,r3,439f8 <___vfprintf_internal_r+0x1610>
   431ec:	4a400204 	addi	r9,r9,8
   431f0:	d8812417 	ldw	r2,1168(sp)
   431f4:	d8c13217 	ldw	r3,1224(sp)
   431f8:	10c00216 	blt	r2,r3,43204 <___vfprintf_internal_r+0xe1c>
   431fc:	8080004c 	andi	r2,r16,1
   43200:	103f6826 	beq	r2,zero,42fa4 <___vfprintf_internal_r+0xbbc>
   43204:	d8c11c17 	ldw	r3,1136(sp)
   43208:	d9013717 	ldw	r4,1244(sp)
   4320c:	00800044 	movi	r2,1
   43210:	48800115 	stw	r2,4(r9)
   43214:	49000015 	stw	r4,0(r9)
   43218:	4091883a 	add	r8,r8,r2
   4321c:	1887883a 	add	r3,r3,r2
   43220:	da011d15 	stw	r8,1140(sp)
   43224:	d8c11c15 	stw	r3,1136(sp)
   43228:	008001c4 	movi	r2,7
   4322c:	10c2ce16 	blt	r2,r3,43d68 <___vfprintf_internal_r+0x1980>
   43230:	4a400204 	addi	r9,r9,8
   43234:	d8813217 	ldw	r2,1224(sp)
   43238:	14bfffc4 	addi	r18,r2,-1
   4323c:	04bf590e 	bge	zero,r18,42fa4 <___vfprintf_internal_r+0xbbc>
   43240:	04c00404 	movi	r19,16
   43244:	d8c11c17 	ldw	r3,1136(sp)
   43248:	05000174 	movhi	r20,5
   4324c:	a5384b84 	addi	r20,r20,-7890
   43250:	9c818a0e 	bge	r19,r18,4387c <___vfprintf_internal_r+0x1494>
   43254:	058001c4 	movi	r22,7
   43258:	ddc12917 	ldw	r23,1188(sp)
   4325c:	00000306 	br	4326c <___vfprintf_internal_r+0xe84>
   43260:	4a400204 	addi	r9,r9,8
   43264:	94bffc04 	addi	r18,r18,-16
   43268:	9c81840e 	bge	r19,r18,4387c <___vfprintf_internal_r+0x1494>
   4326c:	4d000015 	stw	r20,0(r9)
   43270:	4cc00115 	stw	r19,4(r9)
   43274:	42000404 	addi	r8,r8,16
   43278:	18c00044 	addi	r3,r3,1
   4327c:	da011d15 	stw	r8,1140(sp)
   43280:	d8c11c15 	stw	r3,1136(sp)
   43284:	b0fff60e 	bge	r22,r3,43260 <___vfprintf_internal_r+0xe78>
   43288:	8809883a 	mov	r4,r17
   4328c:	b80b883a 	mov	r5,r23
   43290:	d9811b04 	addi	r6,sp,1132
   43294:	00423b40 	call	423b4 <__sprint_r>
   43298:	103d991e 	bne	r2,zero,42900 <___vfprintf_internal_r+0x518>
   4329c:	da011d17 	ldw	r8,1140(sp)
   432a0:	d8c11c17 	ldw	r3,1136(sp)
   432a4:	da400404 	addi	r9,sp,16
   432a8:	003fee06 	br	43264 <___vfprintf_internal_r+0xe7c>
   432ac:	d8812e17 	ldw	r2,1208(sp)
   432b0:	d9012817 	ldw	r4,1184(sp)
   432b4:	112fc83a 	sub	r23,r2,r4
   432b8:	05ff000e 	bge	zero,r23,42ebc <___vfprintf_internal_r+0xad4>
   432bc:	07000404 	movi	fp,16
   432c0:	05000174 	movhi	r20,5
   432c4:	a5384b84 	addi	r20,r20,-7890
   432c8:	e5c01d0e 	bge	fp,r23,43340 <___vfprintf_internal_r+0xf58>
   432cc:	dc812a15 	stw	r18,1192(sp)
   432d0:	058001c4 	movi	r22,7
   432d4:	a025883a 	mov	r18,r20
   432d8:	8029883a 	mov	r20,r16
   432dc:	dc012917 	ldw	r16,1188(sp)
   432e0:	00000306 	br	432f0 <___vfprintf_internal_r+0xf08>
   432e4:	bdfffc04 	addi	r23,r23,-16
   432e8:	4a400204 	addi	r9,r9,8
   432ec:	e5c0110e 	bge	fp,r23,43334 <___vfprintf_internal_r+0xf4c>
   432f0:	4c800015 	stw	r18,0(r9)
   432f4:	4f000115 	stw	fp,4(r9)
   432f8:	42000404 	addi	r8,r8,16
   432fc:	18c00044 	addi	r3,r3,1
   43300:	da011d15 	stw	r8,1140(sp)
   43304:	d8c11c15 	stw	r3,1136(sp)
   43308:	b0fff60e 	bge	r22,r3,432e4 <___vfprintf_internal_r+0xefc>
   4330c:	8809883a 	mov	r4,r17
   43310:	800b883a 	mov	r5,r16
   43314:	d9811b04 	addi	r6,sp,1132
   43318:	00423b40 	call	423b4 <__sprint_r>
   4331c:	103d781e 	bne	r2,zero,42900 <___vfprintf_internal_r+0x518>
   43320:	bdfffc04 	addi	r23,r23,-16
   43324:	da011d17 	ldw	r8,1140(sp)
   43328:	d8c11c17 	ldw	r3,1136(sp)
   4332c:	da400404 	addi	r9,sp,16
   43330:	e5ffef16 	blt	fp,r23,432f0 <___vfprintf_internal_r+0xf08>
   43334:	a021883a 	mov	r16,r20
   43338:	9029883a 	mov	r20,r18
   4333c:	dc812a17 	ldw	r18,1192(sp)
   43340:	4d000015 	stw	r20,0(r9)
   43344:	4dc00115 	stw	r23,4(r9)
   43348:	45d1883a 	add	r8,r8,r23
   4334c:	18c00044 	addi	r3,r3,1
   43350:	da011d15 	stw	r8,1140(sp)
   43354:	d8c11c15 	stw	r3,1136(sp)
   43358:	008001c4 	movi	r2,7
   4335c:	10c13616 	blt	r2,r3,43838 <___vfprintf_internal_r+0x1450>
   43360:	4a400204 	addi	r9,r9,8
   43364:	003ed506 	br	42ebc <___vfprintf_internal_r+0xad4>
   43368:	d9412917 	ldw	r5,1188(sp)
   4336c:	8809883a 	mov	r4,r17
   43370:	d9811b04 	addi	r6,sp,1132
   43374:	00423b40 	call	423b4 <__sprint_r>
   43378:	103f4226 	beq	r2,zero,43084 <___vfprintf_internal_r+0xc9c>
   4337c:	003d6006 	br	42900 <___vfprintf_internal_r+0x518>
   43380:	d9013217 	ldw	r4,1224(sp)
   43384:	00800044 	movi	r2,1
   43388:	4cc00015 	stw	r19,0(r9)
   4338c:	1101000e 	bge	r2,r4,43790 <___vfprintf_internal_r+0x13a8>
   43390:	00800044 	movi	r2,1
   43394:	48800115 	stw	r2,4(r9)
   43398:	4091883a 	add	r8,r8,r2
   4339c:	1887883a 	add	r3,r3,r2
   433a0:	da011d15 	stw	r8,1140(sp)
   433a4:	d8c11c15 	stw	r3,1136(sp)
   433a8:	008001c4 	movi	r2,7
   433ac:	10c10c16 	blt	r2,r3,437e0 <___vfprintf_internal_r+0x13f8>
   433b0:	4a400204 	addi	r9,r9,8
   433b4:	d8813717 	ldw	r2,1244(sp)
   433b8:	48800015 	stw	r2,0(r9)
   433bc:	00800044 	movi	r2,1
   433c0:	48800115 	stw	r2,4(r9)
   433c4:	4091883a 	add	r8,r8,r2
   433c8:	1887883a 	add	r3,r3,r2
   433cc:	da011d15 	stw	r8,1140(sp)
   433d0:	d8c11c15 	stw	r3,1136(sp)
   433d4:	008001c4 	movi	r2,7
   433d8:	10c10a16 	blt	r2,r3,43804 <___vfprintf_internal_r+0x141c>
   433dc:	4c800204 	addi	r18,r9,8
   433e0:	d9013317 	ldw	r4,1228(sp)
   433e4:	d9413417 	ldw	r5,1232(sp)
   433e8:	000d883a 	mov	r6,zero
   433ec:	000f883a 	mov	r7,zero
   433f0:	d8c13b15 	stw	r3,1260(sp)
   433f4:	da013a15 	stw	r8,1256(sp)
   433f8:	004a5640 	call	4a564 <__nedf2>
   433fc:	d8c13b17 	ldw	r3,1260(sp)
   43400:	da013a17 	ldw	r8,1256(sp)
   43404:	1000ba26 	beq	r2,zero,436f0 <___vfprintf_internal_r+0x1308>
   43408:	d9013217 	ldw	r4,1224(sp)
   4340c:	9cc00044 	addi	r19,r19,1
   43410:	94c00015 	stw	r19,0(r18)
   43414:	20bfffc4 	addi	r2,r4,-1
   43418:	90800115 	stw	r2,4(r18)
   4341c:	4091883a 	add	r8,r8,r2
   43420:	18c00044 	addi	r3,r3,1
   43424:	da011d15 	stw	r8,1140(sp)
   43428:	d8c11c15 	stw	r3,1136(sp)
   4342c:	008001c4 	movi	r2,7
   43430:	10c0e216 	blt	r2,r3,437bc <___vfprintf_internal_r+0x13d4>
   43434:	94800204 	addi	r18,r18,8
   43438:	d9013517 	ldw	r4,1236(sp)
   4343c:	d8811fc4 	addi	r2,sp,1151
   43440:	90800015 	stw	r2,0(r18)
   43444:	91000115 	stw	r4,4(r18)
   43448:	4111883a 	add	r8,r8,r4
   4344c:	18c00044 	addi	r3,r3,1
   43450:	da011d15 	stw	r8,1140(sp)
   43454:	d8c11c15 	stw	r3,1136(sp)
   43458:	008001c4 	movi	r2,7
   4345c:	10ff2316 	blt	r2,r3,430ec <___vfprintf_internal_r+0xd04>
   43460:	92400204 	addi	r9,r18,8
   43464:	003ecf06 	br	42fa4 <___vfprintf_internal_r+0xbbc>
   43468:	d9412917 	ldw	r5,1188(sp)
   4346c:	8809883a 	mov	r4,r17
   43470:	d9811b04 	addi	r6,sp,1132
   43474:	00423b40 	call	423b4 <__sprint_r>
   43478:	103d211e 	bne	r2,zero,42900 <___vfprintf_internal_r+0x518>
   4347c:	da011d17 	ldw	r8,1140(sp)
   43480:	d8c11c17 	ldw	r3,1136(sp)
   43484:	da400404 	addi	r9,sp,16
   43488:	003eba06 	br	42f74 <___vfprintf_internal_r+0xb8c>
   4348c:	d9412917 	ldw	r5,1188(sp)
   43490:	8809883a 	mov	r4,r17
   43494:	d9811b04 	addi	r6,sp,1132
   43498:	00423b40 	call	423b4 <__sprint_r>
   4349c:	103d181e 	bne	r2,zero,42900 <___vfprintf_internal_r+0x518>
   434a0:	da011d17 	ldw	r8,1140(sp)
   434a4:	d8c11c17 	ldw	r3,1136(sp)
   434a8:	da400404 	addi	r9,sp,16
   434ac:	003e8006 	br	42eb0 <___vfprintf_internal_r+0xac8>
   434b0:	d9412917 	ldw	r5,1188(sp)
   434b4:	8809883a 	mov	r4,r17
   434b8:	d9811b04 	addi	r6,sp,1132
   434bc:	00423b40 	call	423b4 <__sprint_r>
   434c0:	103d0f1e 	bne	r2,zero,42900 <___vfprintf_internal_r+0x518>
   434c4:	da011d17 	ldw	r8,1140(sp)
   434c8:	d8c11c17 	ldw	r3,1136(sp)
   434cc:	da400404 	addi	r9,sp,16
   434d0:	003e6a06 	br	42e7c <___vfprintf_internal_r+0xa94>
   434d4:	d9413617 	ldw	r5,1240(sp)
   434d8:	d8810dc4 	addi	r2,sp,1079
   434dc:	b8c003cc 	andi	r3,r23,15
   434e0:	b008973a 	slli	r4,r22,28
   434e4:	28c7883a 	add	r3,r5,r3
   434e8:	b82ed13a 	srli	r23,r23,4
   434ec:	18c00003 	ldbu	r3,0(r3)
   434f0:	b02cd13a 	srli	r22,r22,4
   434f4:	25eeb03a 	or	r23,r4,r23
   434f8:	10c00005 	stb	r3,0(r2)
   434fc:	bd86b03a 	or	r3,r23,r22
   43500:	1027883a 	mov	r19,r2
   43504:	10bfffc4 	addi	r2,r2,-1
   43508:	183ff41e 	bne	r3,zero,434dc <___vfprintf_internal_r+0x10f4>
   4350c:	003f1a06 	br	43178 <___vfprintf_internal_r+0xd90>
   43510:	d8012b15 	stw	zero,1196(sp)
   43514:	dcc10e04 	addi	r19,sp,1080
   43518:	003d3a06 	br	42a04 <___vfprintf_internal_r+0x61c>
   4351c:	b0025426 	beq	r22,zero,43e70 <___vfprintf_internal_r+0x1a88>
   43520:	b807883a 	mov	r3,r23
   43524:	d8810dc4 	addi	r2,sp,1079
   43528:	882f883a 	mov	r23,r17
   4352c:	04c00244 	movi	r19,9
   43530:	8023883a 	mov	r17,r16
   43534:	da412815 	stw	r9,1184(sp)
   43538:	1821883a 	mov	r16,r3
   4353c:	8009883a 	mov	r4,r16
   43540:	b00b883a 	mov	r5,r22
   43544:	01800284 	movi	r6,10
   43548:	000f883a 	mov	r7,zero
   4354c:	1029883a 	mov	r20,r2
   43550:	00496400 	call	49640 <__umoddi3>
   43554:	10800c04 	addi	r2,r2,48
   43558:	8009883a 	mov	r4,r16
   4355c:	b00b883a 	mov	r5,r22
   43560:	a0800005 	stb	r2,0(r20)
   43564:	01800284 	movi	r6,10
   43568:	000f883a 	mov	r7,zero
   4356c:	0048ff00 	call	48ff0 <__udivdi3>
   43570:	1021883a 	mov	r16,r2
   43574:	182d883a 	mov	r22,r3
   43578:	a0bfffc4 	addi	r2,r20,-1
   4357c:	183fef1e 	bne	r3,zero,4353c <___vfprintf_internal_r+0x1154>
   43580:	9c3fee36 	bltu	r19,r16,4353c <___vfprintf_internal_r+0x1154>
   43584:	da412817 	ldw	r9,1184(sp)
   43588:	8005883a 	mov	r2,r16
   4358c:	8821883a 	mov	r16,r17
   43590:	b823883a 	mov	r17,r23
   43594:	102f883a 	mov	r23,r2
   43598:	d8812717 	ldw	r2,1180(sp)
   4359c:	a4ffffc4 	addi	r19,r20,-1
   435a0:	bdc00c04 	addi	r23,r23,48
   435a4:	14c5c83a 	sub	r2,r2,r19
   435a8:	a5ffffc5 	stb	r23,-1(r20)
   435ac:	d8812b15 	stw	r2,1196(sp)
   435b0:	003d1406 	br	42a04 <___vfprintf_internal_r+0x61c>
   435b4:	00c00044 	movi	r3,1
   435b8:	bd84b03a 	or	r2,r23,r22
   435bc:	003d0306 	br	429cc <___vfprintf_internal_r+0x5e4>
   435c0:	dc812417 	ldw	r18,1168(sp)
   435c4:	0481140e 	bge	zero,r18,43a18 <___vfprintf_internal_r+0x1630>
   435c8:	d9013217 	ldw	r4,1224(sp)
   435cc:	4cc00015 	stw	r19,0(r9)
   435d0:	9100ec16 	blt	r18,r4,43984 <___vfprintf_internal_r+0x159c>
   435d4:	49000115 	stw	r4,4(r9)
   435d8:	4111883a 	add	r8,r8,r4
   435dc:	18c00044 	addi	r3,r3,1
   435e0:	da011d15 	stw	r8,1140(sp)
   435e4:	d8c11c15 	stw	r3,1136(sp)
   435e8:	008001c4 	movi	r2,7
   435ec:	10c23616 	blt	r2,r3,43ec8 <___vfprintf_internal_r+0x1ae0>
   435f0:	4a400204 	addi	r9,r9,8
   435f4:	d8813217 	ldw	r2,1224(sp)
   435f8:	90a5c83a 	sub	r18,r18,r2
   435fc:	04beae0e 	bge	zero,r18,430b8 <___vfprintf_internal_r+0xcd0>
   43600:	04c00404 	movi	r19,16
   43604:	d8c11c17 	ldw	r3,1136(sp)
   43608:	05000174 	movhi	r20,5
   4360c:	a5384b84 	addi	r20,r20,-7890
   43610:	9c81dd0e 	bge	r19,r18,43d88 <___vfprintf_internal_r+0x19a0>
   43614:	058001c4 	movi	r22,7
   43618:	ddc12917 	ldw	r23,1188(sp)
   4361c:	00000306 	br	4362c <___vfprintf_internal_r+0x1244>
   43620:	4a400204 	addi	r9,r9,8
   43624:	94bffc04 	addi	r18,r18,-16
   43628:	9c81d70e 	bge	r19,r18,43d88 <___vfprintf_internal_r+0x19a0>
   4362c:	4d000015 	stw	r20,0(r9)
   43630:	4cc00115 	stw	r19,4(r9)
   43634:	42000404 	addi	r8,r8,16
   43638:	18c00044 	addi	r3,r3,1
   4363c:	da011d15 	stw	r8,1140(sp)
   43640:	d8c11c15 	stw	r3,1136(sp)
   43644:	b0fff60e 	bge	r22,r3,43620 <___vfprintf_internal_r+0x1238>
   43648:	8809883a 	mov	r4,r17
   4364c:	b80b883a 	mov	r5,r23
   43650:	d9811b04 	addi	r6,sp,1132
   43654:	00423b40 	call	423b4 <__sprint_r>
   43658:	103ca91e 	bne	r2,zero,42900 <___vfprintf_internal_r+0x518>
   4365c:	da011d17 	ldw	r8,1140(sp)
   43660:	d8c11c17 	ldw	r3,1136(sp)
   43664:	da400404 	addi	r9,sp,16
   43668:	003fee06 	br	43624 <___vfprintf_internal_r+0x123c>
   4366c:	d9412917 	ldw	r5,1188(sp)
   43670:	8809883a 	mov	r4,r17
   43674:	d9811b04 	addi	r6,sp,1132
   43678:	00423b40 	call	423b4 <__sprint_r>
   4367c:	103ca01e 	bne	r2,zero,42900 <___vfprintf_internal_r+0x518>
   43680:	da011d17 	ldw	r8,1140(sp)
   43684:	d8c11c17 	ldw	r3,1136(sp)
   43688:	da400404 	addi	r9,sp,16
   4368c:	003dee06 	br	42e48 <___vfprintf_internal_r+0xa60>
   43690:	00c00084 	movi	r3,2
   43694:	bd84b03a 	or	r2,r23,r22
   43698:	d8012585 	stb	zero,1174(sp)
   4369c:	003ccb06 	br	429cc <___vfprintf_internal_r+0x5e4>
   436a0:	8080040c 	andi	r2,r16,16
   436a4:	1000ae26 	beq	r2,zero,43960 <___vfprintf_internal_r+0x1578>
   436a8:	d9012d17 	ldw	r4,1204(sp)
   436ac:	25c00017 	ldw	r23,0(r4)
   436b0:	21000104 	addi	r4,r4,4
   436b4:	d9012d15 	stw	r4,1204(sp)
   436b8:	b82dd7fa 	srai	r22,r23,31
   436bc:	b005883a 	mov	r2,r22
   436c0:	003cb906 	br	429a8 <___vfprintf_internal_r+0x5c0>
   436c4:	8080040c 	andi	r2,r16,16
   436c8:	10007026 	beq	r2,zero,4388c <___vfprintf_internal_r+0x14a4>
   436cc:	d8812d17 	ldw	r2,1204(sp)
   436d0:	002d883a 	mov	r22,zero
   436d4:	00c00044 	movi	r3,1
   436d8:	15c00017 	ldw	r23,0(r2)
   436dc:	10800104 	addi	r2,r2,4
   436e0:	d8812d15 	stw	r2,1204(sp)
   436e4:	d8012585 	stb	zero,1174(sp)
   436e8:	b805883a 	mov	r2,r23
   436ec:	003cb706 	br	429cc <___vfprintf_internal_r+0x5e4>
   436f0:	d8813217 	ldw	r2,1224(sp)
   436f4:	14ffffc4 	addi	r19,r2,-1
   436f8:	04ff4f0e 	bge	zero,r19,43438 <___vfprintf_internal_r+0x1050>
   436fc:	05800404 	movi	r22,16
   43700:	05000174 	movhi	r20,5
   43704:	a5384b84 	addi	r20,r20,-7890
   43708:	b4c0470e 	bge	r22,r19,43828 <___vfprintf_internal_r+0x1440>
   4370c:	05c001c4 	movi	r23,7
   43710:	df012917 	ldw	fp,1188(sp)
   43714:	00000306 	br	43724 <___vfprintf_internal_r+0x133c>
   43718:	94800204 	addi	r18,r18,8
   4371c:	9cfffc04 	addi	r19,r19,-16
   43720:	b4c0410e 	bge	r22,r19,43828 <___vfprintf_internal_r+0x1440>
   43724:	95000015 	stw	r20,0(r18)
   43728:	95800115 	stw	r22,4(r18)
   4372c:	42000404 	addi	r8,r8,16
   43730:	18c00044 	addi	r3,r3,1
   43734:	da011d15 	stw	r8,1140(sp)
   43738:	d8c11c15 	stw	r3,1136(sp)
   4373c:	b8fff60e 	bge	r23,r3,43718 <___vfprintf_internal_r+0x1330>
   43740:	8809883a 	mov	r4,r17
   43744:	e00b883a 	mov	r5,fp
   43748:	d9811b04 	addi	r6,sp,1132
   4374c:	00423b40 	call	423b4 <__sprint_r>
   43750:	103c6b1e 	bne	r2,zero,42900 <___vfprintf_internal_r+0x518>
   43754:	da011d17 	ldw	r8,1140(sp)
   43758:	d8c11c17 	ldw	r3,1136(sp)
   4375c:	dc800404 	addi	r18,sp,16
   43760:	003fee06 	br	4371c <___vfprintf_internal_r+0x1334>
   43764:	8080040c 	andi	r2,r16,16
   43768:	10005326 	beq	r2,zero,438b8 <___vfprintf_internal_r+0x14d0>
   4376c:	d8c12d17 	ldw	r3,1204(sp)
   43770:	002d883a 	mov	r22,zero
   43774:	1dc00017 	ldw	r23,0(r3)
   43778:	18c00104 	addi	r3,r3,4
   4377c:	d8c12d15 	stw	r3,1204(sp)
   43780:	b805883a 	mov	r2,r23
   43784:	0007883a 	mov	r3,zero
   43788:	d8012585 	stb	zero,1174(sp)
   4378c:	003c8f06 	br	429cc <___vfprintf_internal_r+0x5e4>
   43790:	8088703a 	and	r4,r16,r2
   43794:	203efe1e 	bne	r4,zero,43390 <___vfprintf_internal_r+0xfa8>
   43798:	48800115 	stw	r2,4(r9)
   4379c:	42000044 	addi	r8,r8,1
   437a0:	18c00044 	addi	r3,r3,1
   437a4:	da011d15 	stw	r8,1140(sp)
   437a8:	d8c11c15 	stw	r3,1136(sp)
   437ac:	008001c4 	movi	r2,7
   437b0:	10c00216 	blt	r2,r3,437bc <___vfprintf_internal_r+0x13d4>
   437b4:	4c800204 	addi	r18,r9,8
   437b8:	003f1f06 	br	43438 <___vfprintf_internal_r+0x1050>
   437bc:	d9412917 	ldw	r5,1188(sp)
   437c0:	8809883a 	mov	r4,r17
   437c4:	d9811b04 	addi	r6,sp,1132
   437c8:	00423b40 	call	423b4 <__sprint_r>
   437cc:	103c4c1e 	bne	r2,zero,42900 <___vfprintf_internal_r+0x518>
   437d0:	dc800404 	addi	r18,sp,16
   437d4:	da011d17 	ldw	r8,1140(sp)
   437d8:	d8c11c17 	ldw	r3,1136(sp)
   437dc:	003f1606 	br	43438 <___vfprintf_internal_r+0x1050>
   437e0:	d9412917 	ldw	r5,1188(sp)
   437e4:	8809883a 	mov	r4,r17
   437e8:	d9811b04 	addi	r6,sp,1132
   437ec:	00423b40 	call	423b4 <__sprint_r>
   437f0:	103c431e 	bne	r2,zero,42900 <___vfprintf_internal_r+0x518>
   437f4:	da011d17 	ldw	r8,1140(sp)
   437f8:	d8c11c17 	ldw	r3,1136(sp)
   437fc:	da400404 	addi	r9,sp,16
   43800:	003eec06 	br	433b4 <___vfprintf_internal_r+0xfcc>
   43804:	d9412917 	ldw	r5,1188(sp)
   43808:	8809883a 	mov	r4,r17
   4380c:	d9811b04 	addi	r6,sp,1132
   43810:	00423b40 	call	423b4 <__sprint_r>
   43814:	103c3a1e 	bne	r2,zero,42900 <___vfprintf_internal_r+0x518>
   43818:	da011d17 	ldw	r8,1140(sp)
   4381c:	d8c11c17 	ldw	r3,1136(sp)
   43820:	dc800404 	addi	r18,sp,16
   43824:	003eee06 	br	433e0 <___vfprintf_internal_r+0xff8>
   43828:	95000015 	stw	r20,0(r18)
   4382c:	94c00115 	stw	r19,4(r18)
   43830:	44d1883a 	add	r8,r8,r19
   43834:	003efa06 	br	43420 <___vfprintf_internal_r+0x1038>
   43838:	d9412917 	ldw	r5,1188(sp)
   4383c:	8809883a 	mov	r4,r17
   43840:	d9811b04 	addi	r6,sp,1132
   43844:	00423b40 	call	423b4 <__sprint_r>
   43848:	103c2d1e 	bne	r2,zero,42900 <___vfprintf_internal_r+0x518>
   4384c:	da011d17 	ldw	r8,1140(sp)
   43850:	d8c11c17 	ldw	r3,1136(sp)
   43854:	da400404 	addi	r9,sp,16
   43858:	003d9806 	br	42ebc <___vfprintf_internal_r+0xad4>
   4385c:	8080100c 	andi	r2,r16,64
   43860:	10011626 	beq	r2,zero,43cbc <___vfprintf_internal_r+0x18d4>
   43864:	d8c12d17 	ldw	r3,1204(sp)
   43868:	002d883a 	mov	r22,zero
   4386c:	1dc0000b 	ldhu	r23,0(r3)
   43870:	18c00104 	addi	r3,r3,4
   43874:	d8c12d15 	stw	r3,1204(sp)
   43878:	003cc106 	br	42b80 <___vfprintf_internal_r+0x798>
   4387c:	4d000015 	stw	r20,0(r9)
   43880:	4c800115 	stw	r18,4(r9)
   43884:	4491883a 	add	r8,r8,r18
   43888:	003dc006 	br	42f8c <___vfprintf_internal_r+0xba4>
   4388c:	8080100c 	andi	r2,r16,64
   43890:	10010126 	beq	r2,zero,43c98 <___vfprintf_internal_r+0x18b0>
   43894:	d8c12d17 	ldw	r3,1204(sp)
   43898:	002d883a 	mov	r22,zero
   4389c:	1dc0000b 	ldhu	r23,0(r3)
   438a0:	18c00104 	addi	r3,r3,4
   438a4:	d8c12d15 	stw	r3,1204(sp)
   438a8:	b805883a 	mov	r2,r23
   438ac:	00c00044 	movi	r3,1
   438b0:	d8012585 	stb	zero,1174(sp)
   438b4:	003c4506 	br	429cc <___vfprintf_internal_r+0x5e4>
   438b8:	8080100c 	andi	r2,r16,64
   438bc:	10010526 	beq	r2,zero,43cd4 <___vfprintf_internal_r+0x18ec>
   438c0:	d9012d17 	ldw	r4,1204(sp)
   438c4:	002d883a 	mov	r22,zero
   438c8:	0007883a 	mov	r3,zero
   438cc:	25c0000b 	ldhu	r23,0(r4)
   438d0:	21000104 	addi	r4,r4,4
   438d4:	d9012d15 	stw	r4,1204(sp)
   438d8:	b805883a 	mov	r2,r23
   438dc:	d8012585 	stb	zero,1174(sp)
   438e0:	003c3a06 	br	429cc <___vfprintf_internal_r+0x5e4>
   438e4:	d8812d17 	ldw	r2,1204(sp)
   438e8:	15800017 	ldw	r22,0(r2)
   438ec:	15000117 	ldw	r20,4(r2)
   438f0:	10800204 	addi	r2,r2,8
   438f4:	d8812d15 	stw	r2,1204(sp)
   438f8:	dd813315 	stw	r22,1228(sp)
   438fc:	dd013415 	stw	r20,1232(sp)
   43900:	003c5906 	br	42a68 <___vfprintf_internal_r+0x680>
   43904:	00c00084 	movi	r3,2
   43908:	d8012585 	stb	zero,1174(sp)
   4390c:	003c2f06 	br	429cc <___vfprintf_internal_r+0x5e4>
   43910:	ac800007 	ldb	r18,0(r21)
   43914:	003b1006 	br	42558 <___vfprintf_internal_r+0x170>
   43918:	8080040c 	andi	r2,r16,16
   4391c:	1000091e 	bne	r2,zero,43944 <___vfprintf_internal_r+0x155c>
   43920:	8400100c 	andi	r16,r16,64
   43924:	80000726 	beq	r16,zero,43944 <___vfprintf_internal_r+0x155c>
   43928:	d8c12d17 	ldw	r3,1204(sp)
   4392c:	d9012c17 	ldw	r4,1200(sp)
   43930:	18800017 	ldw	r2,0(r3)
   43934:	18c00104 	addi	r3,r3,4
   43938:	d8c12d15 	stw	r3,1204(sp)
   4393c:	1100000d 	sth	r4,0(r2)
   43940:	003adf06 	br	424c0 <___vfprintf_internal_r+0xd8>
   43944:	d8c12d17 	ldw	r3,1204(sp)
   43948:	d9012c17 	ldw	r4,1200(sp)
   4394c:	18800017 	ldw	r2,0(r3)
   43950:	18c00104 	addi	r3,r3,4
   43954:	d8c12d15 	stw	r3,1204(sp)
   43958:	11000015 	stw	r4,0(r2)
   4395c:	003ad806 	br	424c0 <___vfprintf_internal_r+0xd8>
   43960:	8080100c 	andi	r2,r16,64
   43964:	1000c526 	beq	r2,zero,43c7c <___vfprintf_internal_r+0x1894>
   43968:	d8812d17 	ldw	r2,1204(sp)
   4396c:	15c0000f 	ldh	r23,0(r2)
   43970:	10800104 	addi	r2,r2,4
   43974:	d8812d15 	stw	r2,1204(sp)
   43978:	b82dd7fa 	srai	r22,r23,31
   4397c:	b005883a 	mov	r2,r22
   43980:	003c0906 	br	429a8 <___vfprintf_internal_r+0x5c0>
   43984:	4c800115 	stw	r18,4(r9)
   43988:	9211883a 	add	r8,r18,r8
   4398c:	18c00044 	addi	r3,r3,1
   43990:	da011d15 	stw	r8,1140(sp)
   43994:	d8c11c15 	stw	r3,1136(sp)
   43998:	008001c4 	movi	r2,7
   4399c:	10c14016 	blt	r2,r3,43ea0 <___vfprintf_internal_r+0x1ab8>
   439a0:	4a400204 	addi	r9,r9,8
   439a4:	d8813717 	ldw	r2,1244(sp)
   439a8:	9ca7883a 	add	r19,r19,r18
   439ac:	48800015 	stw	r2,0(r9)
   439b0:	00800044 	movi	r2,1
   439b4:	48800115 	stw	r2,4(r9)
   439b8:	4091883a 	add	r8,r8,r2
   439bc:	1887883a 	add	r3,r3,r2
   439c0:	da011d15 	stw	r8,1140(sp)
   439c4:	d8c11c15 	stw	r3,1136(sp)
   439c8:	008001c4 	movi	r2,7
   439cc:	10c12c16 	blt	r2,r3,43e80 <___vfprintf_internal_r+0x1a98>
   439d0:	4a400204 	addi	r9,r9,8
   439d4:	d9013217 	ldw	r4,1224(sp)
   439d8:	da011d17 	ldw	r8,1140(sp)
   439dc:	d8c11c17 	ldw	r3,1136(sp)
   439e0:	24a5c83a 	sub	r18,r4,r18
   439e4:	4cc00015 	stw	r19,0(r9)
   439e8:	003fa506 	br	43880 <___vfprintf_internal_r+0x1498>
   439ec:	04c00174 	movhi	r19,5
   439f0:	9cf83804 	addi	r19,r19,-7968
   439f4:	003c2e06 	br	42ab0 <___vfprintf_internal_r+0x6c8>
   439f8:	d9412917 	ldw	r5,1188(sp)
   439fc:	8809883a 	mov	r4,r17
   43a00:	d9811b04 	addi	r6,sp,1132
   43a04:	00423b40 	call	423b4 <__sprint_r>
   43a08:	103bbd1e 	bne	r2,zero,42900 <___vfprintf_internal_r+0x518>
   43a0c:	da011d17 	ldw	r8,1140(sp)
   43a10:	da400404 	addi	r9,sp,16
   43a14:	003df606 	br	431f0 <___vfprintf_internal_r+0xe08>
   43a18:	00800174 	movhi	r2,5
   43a1c:	10b84704 	addi	r2,r2,-7908
   43a20:	48800015 	stw	r2,0(r9)
   43a24:	00800044 	movi	r2,1
   43a28:	48800115 	stw	r2,4(r9)
   43a2c:	4091883a 	add	r8,r8,r2
   43a30:	1887883a 	add	r3,r3,r2
   43a34:	da011d15 	stw	r8,1140(sp)
   43a38:	d8c11c15 	stw	r3,1136(sp)
   43a3c:	008001c4 	movi	r2,7
   43a40:	10c0bc16 	blt	r2,r3,43d34 <___vfprintf_internal_r+0x194c>
   43a44:	4a400204 	addi	r9,r9,8
   43a48:	9000041e 	bne	r18,zero,43a5c <___vfprintf_internal_r+0x1674>
   43a4c:	d8c13217 	ldw	r3,1224(sp)
   43a50:	1800021e 	bne	r3,zero,43a5c <___vfprintf_internal_r+0x1674>
   43a54:	8080004c 	andi	r2,r16,1
   43a58:	103d5226 	beq	r2,zero,42fa4 <___vfprintf_internal_r+0xbbc>
   43a5c:	d8c11c17 	ldw	r3,1136(sp)
   43a60:	d9013717 	ldw	r4,1244(sp)
   43a64:	00800044 	movi	r2,1
   43a68:	48800115 	stw	r2,4(r9)
   43a6c:	49000015 	stw	r4,0(r9)
   43a70:	4091883a 	add	r8,r8,r2
   43a74:	1887883a 	add	r3,r3,r2
   43a78:	da011d15 	stw	r8,1140(sp)
   43a7c:	d8c11c15 	stw	r3,1136(sp)
   43a80:	008001c4 	movi	r2,7
   43a84:	10c14516 	blt	r2,r3,43f9c <___vfprintf_internal_r+0x1bb4>
   43a88:	4a400204 	addi	r9,r9,8
   43a8c:	04a5c83a 	sub	r18,zero,r18
   43a90:	0480d70e 	bge	zero,r18,43df0 <___vfprintf_internal_r+0x1a08>
   43a94:	05800404 	movi	r22,16
   43a98:	05000174 	movhi	r20,5
   43a9c:	a5384b84 	addi	r20,r20,-7890
   43aa0:	b480db0e 	bge	r22,r18,43e10 <___vfprintf_internal_r+0x1a28>
   43aa4:	05c001c4 	movi	r23,7
   43aa8:	df012917 	ldw	fp,1188(sp)
   43aac:	00000306 	br	43abc <___vfprintf_internal_r+0x16d4>
   43ab0:	4a400204 	addi	r9,r9,8
   43ab4:	94bffc04 	addi	r18,r18,-16
   43ab8:	b480d50e 	bge	r22,r18,43e10 <___vfprintf_internal_r+0x1a28>
   43abc:	4d000015 	stw	r20,0(r9)
   43ac0:	4d800115 	stw	r22,4(r9)
   43ac4:	42000404 	addi	r8,r8,16
   43ac8:	18c00044 	addi	r3,r3,1
   43acc:	da011d15 	stw	r8,1140(sp)
   43ad0:	d8c11c15 	stw	r3,1136(sp)
   43ad4:	b8fff60e 	bge	r23,r3,43ab0 <___vfprintf_internal_r+0x16c8>
   43ad8:	8809883a 	mov	r4,r17
   43adc:	e00b883a 	mov	r5,fp
   43ae0:	d9811b04 	addi	r6,sp,1132
   43ae4:	00423b40 	call	423b4 <__sprint_r>
   43ae8:	103b851e 	bne	r2,zero,42900 <___vfprintf_internal_r+0x518>
   43aec:	da011d17 	ldw	r8,1140(sp)
   43af0:	d8c11c17 	ldw	r3,1136(sp)
   43af4:	da400404 	addi	r9,sp,16
   43af8:	003fee06 	br	43ab4 <___vfprintf_internal_r+0x16cc>
   43afc:	da413c15 	stw	r9,1264(sp)
   43b00:	00489500 	call	48950 <__isnand>
   43b04:	da413c17 	ldw	r9,1264(sp)
   43b08:	10007e1e 	bne	r2,zero,43d04 <___vfprintf_internal_r+0x191c>
   43b0c:	00bfffc4 	movi	r2,-1
   43b10:	e0816a26 	beq	fp,r2,440bc <___vfprintf_internal_r+0x1cd4>
   43b14:	008019c4 	movi	r2,103
   43b18:	90816526 	beq	r18,r2,440b0 <___vfprintf_internal_r+0x1cc8>
   43b1c:	008011c4 	movi	r2,71
   43b20:	90816326 	beq	r18,r2,440b0 <___vfprintf_internal_r+0x1cc8>
   43b24:	80c04014 	ori	r3,r16,256
   43b28:	d8c12a15 	stw	r3,1192(sp)
   43b2c:	a0016516 	blt	r20,zero,440c4 <___vfprintf_internal_r+0x1cdc>
   43b30:	d8012f05 	stb	zero,1212(sp)
   43b34:	00801984 	movi	r2,102
   43b38:	9080f226 	beq	r18,r2,43f04 <___vfprintf_internal_r+0x1b1c>
   43b3c:	00801184 	movi	r2,70
   43b40:	9080f026 	beq	r18,r2,43f04 <___vfprintf_internal_r+0x1b1c>
   43b44:	00801944 	movi	r2,101
   43b48:	90818d26 	beq	r18,r2,44180 <___vfprintf_internal_r+0x1d98>
   43b4c:	00801144 	movi	r2,69
   43b50:	90818b26 	beq	r18,r2,44180 <___vfprintf_internal_r+0x1d98>
   43b54:	e02f883a 	mov	r23,fp
   43b58:	d8812404 	addi	r2,sp,1168
   43b5c:	d8800115 	stw	r2,4(sp)
   43b60:	d8812304 	addi	r2,sp,1164
   43b64:	d8800215 	stw	r2,8(sp)
   43b68:	d8812204 	addi	r2,sp,1160
   43b6c:	ddc00015 	stw	r23,0(sp)
   43b70:	d8800315 	stw	r2,12(sp)
   43b74:	8809883a 	mov	r4,r17
   43b78:	b00b883a 	mov	r5,r22
   43b7c:	a00d883a 	mov	r6,r20
   43b80:	01c00084 	movi	r7,2
   43b84:	da413c15 	stw	r9,1264(sp)
   43b88:	00446380 	call	44638 <_dtoa_r>
   43b8c:	1027883a 	mov	r19,r2
   43b90:	008019c4 	movi	r2,103
   43b94:	da413c17 	ldw	r9,1264(sp)
   43b98:	9081951e 	bne	r18,r2,441f0 <___vfprintf_internal_r+0x1e08>
   43b9c:	8080004c 	andi	r2,r16,1
   43ba0:	10017926 	beq	r2,zero,44188 <___vfprintf_internal_r+0x1da0>
   43ba4:	00801184 	movi	r2,70
   43ba8:	9dc7883a 	add	r3,r19,r23
   43bac:	9080e626 	beq	r18,r2,43f48 <___vfprintf_internal_r+0x1b60>
   43bb0:	b009883a 	mov	r4,r22
   43bb4:	a00b883a 	mov	r5,r20
   43bb8:	000d883a 	mov	r6,zero
   43bbc:	000f883a 	mov	r7,zero
   43bc0:	d8c13b15 	stw	r3,1260(sp)
   43bc4:	da413c15 	stw	r9,1264(sp)
   43bc8:	004a5080 	call	4a508 <__eqdf2>
   43bcc:	d8c13b17 	ldw	r3,1260(sp)
   43bd0:	da413c17 	ldw	r9,1264(sp)
   43bd4:	10000726 	beq	r2,zero,43bf4 <___vfprintf_internal_r+0x180c>
   43bd8:	d8812217 	ldw	r2,1160(sp)
   43bdc:	10c18a2e 	bgeu	r2,r3,44208 <___vfprintf_internal_r+0x1e20>
   43be0:	01000c04 	movi	r4,48
   43be4:	11000005 	stb	r4,0(r2)
   43be8:	10800044 	addi	r2,r2,1
   43bec:	d8812215 	stw	r2,1160(sp)
   43bf0:	10fffc1e 	bne	r2,r3,43be4 <___vfprintf_internal_r+0x17fc>
   43bf4:	1cc7c83a 	sub	r3,r3,r19
   43bf8:	d8c13215 	stw	r3,1224(sp)
   43bfc:	008019c4 	movi	r2,103
   43c00:	9080fa26 	beq	r18,r2,43fec <___vfprintf_internal_r+0x1c04>
   43c04:	008011c4 	movi	r2,71
   43c08:	9080f826 	beq	r18,r2,43fec <___vfprintf_internal_r+0x1c04>
   43c0c:	00801984 	movi	r2,102
   43c10:	90818e1e 	bne	r18,r2,4424c <___vfprintf_internal_r+0x1e64>
   43c14:	d8812417 	ldw	r2,1168(sp)
   43c18:	d8812b15 	stw	r2,1196(sp)
   43c1c:	00817c0e 	bge	zero,r2,44210 <___vfprintf_internal_r+0x1e28>
   43c20:	e000021e 	bne	fp,zero,43c2c <___vfprintf_internal_r+0x1844>
   43c24:	8400004c 	andi	r16,r16,1
   43c28:	80000426 	beq	r16,zero,43c3c <___vfprintf_internal_r+0x1854>
   43c2c:	d8812b17 	ldw	r2,1196(sp)
   43c30:	e2000044 	addi	r8,fp,1
   43c34:	1205883a 	add	r2,r2,r8
   43c38:	d8812b15 	stw	r2,1196(sp)
   43c3c:	d8812815 	stw	r2,1184(sp)
   43c40:	10010b16 	blt	r2,zero,44070 <___vfprintf_internal_r+0x1c88>
   43c44:	ddc12f07 	ldb	r23,1212(sp)
   43c48:	b800e426 	beq	r23,zero,43fdc <___vfprintf_internal_r+0x1bf4>
   43c4c:	00800b44 	movi	r2,45
   43c50:	d8812585 	stb	r2,1174(sp)
   43c54:	dc012a17 	ldw	r16,1192(sp)
   43c58:	d8013115 	stw	zero,1220(sp)
   43c5c:	003b7306 	br	42a2c <___vfprintf_internal_r+0x644>
   43c60:	d8812b17 	ldw	r2,1196(sp)
   43c64:	d8812815 	stw	r2,1184(sp)
   43c68:	10005716 	blt	r2,zero,43dc8 <___vfprintf_internal_r+0x19e0>
   43c6c:	d8812583 	ldbu	r2,1174(sp)
   43c70:	ddc12d15 	stw	r23,1204(sp)
   43c74:	d8013115 	stw	zero,1220(sp)
   43c78:	003b6806 	br	42a1c <___vfprintf_internal_r+0x634>
   43c7c:	d8c12d17 	ldw	r3,1204(sp)
   43c80:	1dc00017 	ldw	r23,0(r3)
   43c84:	18c00104 	addi	r3,r3,4
   43c88:	d8c12d15 	stw	r3,1204(sp)
   43c8c:	b82dd7fa 	srai	r22,r23,31
   43c90:	b005883a 	mov	r2,r22
   43c94:	003b4406 	br	429a8 <___vfprintf_internal_r+0x5c0>
   43c98:	d9012d17 	ldw	r4,1204(sp)
   43c9c:	002d883a 	mov	r22,zero
   43ca0:	00c00044 	movi	r3,1
   43ca4:	25c00017 	ldw	r23,0(r4)
   43ca8:	21000104 	addi	r4,r4,4
   43cac:	d9012d15 	stw	r4,1204(sp)
   43cb0:	b805883a 	mov	r2,r23
   43cb4:	d8012585 	stb	zero,1174(sp)
   43cb8:	003b4406 	br	429cc <___vfprintf_internal_r+0x5e4>
   43cbc:	d9012d17 	ldw	r4,1204(sp)
   43cc0:	002d883a 	mov	r22,zero
   43cc4:	25c00017 	ldw	r23,0(r4)
   43cc8:	21000104 	addi	r4,r4,4
   43ccc:	d9012d15 	stw	r4,1204(sp)
   43cd0:	003bab06 	br	42b80 <___vfprintf_internal_r+0x798>
   43cd4:	d8812d17 	ldw	r2,1204(sp)
   43cd8:	002d883a 	mov	r22,zero
   43cdc:	0007883a 	mov	r3,zero
   43ce0:	15c00017 	ldw	r23,0(r2)
   43ce4:	10800104 	addi	r2,r2,4
   43ce8:	d8812d15 	stw	r2,1204(sp)
   43cec:	d8012585 	stb	zero,1174(sp)
   43cf0:	b805883a 	mov	r2,r23
   43cf4:	003b3506 	br	429cc <___vfprintf_internal_r+0x5e4>
   43cf8:	00ffffc4 	movi	r3,-1
   43cfc:	b82b883a 	mov	r21,r23
   43d00:	003a1606 	br	4255c <___vfprintf_internal_r+0x174>
   43d04:	008011c4 	movi	r2,71
   43d08:	1480b116 	blt	r2,r18,43fd0 <___vfprintf_internal_r+0x1be8>
   43d0c:	04c00174 	movhi	r19,5
   43d10:	9cf83904 	addi	r19,r19,-7964
   43d14:	00c000c4 	movi	r3,3
   43d18:	00bfdfc4 	movi	r2,-129
   43d1c:	80a0703a 	and	r16,r16,r2
   43d20:	d8c12815 	stw	r3,1184(sp)
   43d24:	d8812583 	ldbu	r2,1174(sp)
   43d28:	d8c12b15 	stw	r3,1196(sp)
   43d2c:	d8013115 	stw	zero,1220(sp)
   43d30:	003b3a06 	br	42a1c <___vfprintf_internal_r+0x634>
   43d34:	d9412917 	ldw	r5,1188(sp)
   43d38:	8809883a 	mov	r4,r17
   43d3c:	d9811b04 	addi	r6,sp,1132
   43d40:	00423b40 	call	423b4 <__sprint_r>
   43d44:	103aee1e 	bne	r2,zero,42900 <___vfprintf_internal_r+0x518>
   43d48:	dc812417 	ldw	r18,1168(sp)
   43d4c:	da011d17 	ldw	r8,1140(sp)
   43d50:	da400404 	addi	r9,sp,16
   43d54:	003f3c06 	br	43a48 <___vfprintf_internal_r+0x1660>
   43d58:	ad400044 	addi	r21,r21,1
   43d5c:	84000814 	ori	r16,r16,32
   43d60:	14800047 	ldb	r18,1(r2)
   43d64:	0039fc06 	br	42558 <___vfprintf_internal_r+0x170>
   43d68:	d9412917 	ldw	r5,1188(sp)
   43d6c:	8809883a 	mov	r4,r17
   43d70:	d9811b04 	addi	r6,sp,1132
   43d74:	00423b40 	call	423b4 <__sprint_r>
   43d78:	103ae11e 	bne	r2,zero,42900 <___vfprintf_internal_r+0x518>
   43d7c:	da011d17 	ldw	r8,1140(sp)
   43d80:	da400404 	addi	r9,sp,16
   43d84:	003d2b06 	br	43234 <___vfprintf_internal_r+0xe4c>
   43d88:	4d000015 	stw	r20,0(r9)
   43d8c:	4c800115 	stw	r18,4(r9)
   43d90:	4491883a 	add	r8,r8,r18
   43d94:	18c00044 	addi	r3,r3,1
   43d98:	da011d15 	stw	r8,1140(sp)
   43d9c:	d8c11c15 	stw	r3,1136(sp)
   43da0:	008001c4 	movi	r2,7
   43da4:	10fcbd16 	blt	r2,r3,4309c <___vfprintf_internal_r+0xcb4>
   43da8:	4a400204 	addi	r9,r9,8
   43dac:	003cc206 	br	430b8 <___vfprintf_internal_r+0xcd0>
   43db0:	da413c15 	stw	r9,1264(sp)
   43db4:	00423280 	call	42328 <strlen>
   43db8:	d8812b15 	stw	r2,1196(sp)
   43dbc:	d8812815 	stw	r2,1184(sp)
   43dc0:	da413c17 	ldw	r9,1264(sp)
   43dc4:	103fa90e 	bge	r2,zero,43c6c <___vfprintf_internal_r+0x1884>
   43dc8:	d8012815 	stw	zero,1184(sp)
   43dcc:	003fa706 	br	43c6c <___vfprintf_internal_r+0x1884>
   43dd0:	d9412917 	ldw	r5,1188(sp)
   43dd4:	8809883a 	mov	r4,r17
   43dd8:	d9811b04 	addi	r6,sp,1132
   43ddc:	00423b40 	call	423b4 <__sprint_r>
   43de0:	103ac71e 	bne	r2,zero,42900 <___vfprintf_internal_r+0x518>
   43de4:	da011d17 	ldw	r8,1140(sp)
   43de8:	d8c11c17 	ldw	r3,1136(sp)
   43dec:	da400404 	addi	r9,sp,16
   43df0:	d8813217 	ldw	r2,1224(sp)
   43df4:	4cc00015 	stw	r19,0(r9)
   43df8:	48800115 	stw	r2,4(r9)
   43dfc:	4091883a 	add	r8,r8,r2
   43e00:	003c6206 	br	42f8c <___vfprintf_internal_r+0xba4>
   43e04:	00800b44 	movi	r2,45
   43e08:	d8812585 	stb	r2,1174(sp)
   43e0c:	003b2406 	br	42aa0 <___vfprintf_internal_r+0x6b8>
   43e10:	4d000015 	stw	r20,0(r9)
   43e14:	4c800115 	stw	r18,4(r9)
   43e18:	4491883a 	add	r8,r8,r18
   43e1c:	18c00044 	addi	r3,r3,1
   43e20:	da011d15 	stw	r8,1140(sp)
   43e24:	d8c11c15 	stw	r3,1136(sp)
   43e28:	008001c4 	movi	r2,7
   43e2c:	10ffe816 	blt	r2,r3,43dd0 <___vfprintf_internal_r+0x19e8>
   43e30:	4a400204 	addi	r9,r9,8
   43e34:	003fee06 	br	43df0 <___vfprintf_internal_r+0x1a08>
   43e38:	d8c12b15 	stw	r3,1196(sp)
   43e3c:	00800184 	movi	r2,6
   43e40:	10c0062e 	bgeu	r2,r3,43e5c <___vfprintf_internal_r+0x1a74>
   43e44:	d8812b15 	stw	r2,1196(sp)
   43e48:	d8812815 	stw	r2,1184(sp)
   43e4c:	ddc12d15 	stw	r23,1204(sp)
   43e50:	04c00174 	movhi	r19,5
   43e54:	9cf84504 	addi	r19,r19,-7916
   43e58:	0039ca06 	br	42584 <___vfprintf_internal_r+0x19c>
   43e5c:	d8812b17 	ldw	r2,1196(sp)
   43e60:	d8812815 	stw	r2,1184(sp)
   43e64:	103ff90e 	bge	r2,zero,43e4c <___vfprintf_internal_r+0x1a64>
   43e68:	d8012815 	stw	zero,1184(sp)
   43e6c:	003ff706 	br	43e4c <___vfprintf_internal_r+0x1a64>
   43e70:	00800244 	movi	r2,9
   43e74:	15fdaa36 	bltu	r2,r23,43520 <___vfprintf_internal_r+0x1138>
   43e78:	dd010e04 	addi	r20,sp,1080
   43e7c:	003dc606 	br	43598 <___vfprintf_internal_r+0x11b0>
   43e80:	d9412917 	ldw	r5,1188(sp)
   43e84:	8809883a 	mov	r4,r17
   43e88:	d9811b04 	addi	r6,sp,1132
   43e8c:	00423b40 	call	423b4 <__sprint_r>
   43e90:	103a9b1e 	bne	r2,zero,42900 <___vfprintf_internal_r+0x518>
   43e94:	dc812417 	ldw	r18,1168(sp)
   43e98:	da400404 	addi	r9,sp,16
   43e9c:	003ecd06 	br	439d4 <___vfprintf_internal_r+0x15ec>
   43ea0:	d9412917 	ldw	r5,1188(sp)
   43ea4:	8809883a 	mov	r4,r17
   43ea8:	d9811b04 	addi	r6,sp,1132
   43eac:	00423b40 	call	423b4 <__sprint_r>
   43eb0:	103a931e 	bne	r2,zero,42900 <___vfprintf_internal_r+0x518>
   43eb4:	dc812417 	ldw	r18,1168(sp)
   43eb8:	da011d17 	ldw	r8,1140(sp)
   43ebc:	d8c11c17 	ldw	r3,1136(sp)
   43ec0:	da400404 	addi	r9,sp,16
   43ec4:	003eb706 	br	439a4 <___vfprintf_internal_r+0x15bc>
   43ec8:	d9412917 	ldw	r5,1188(sp)
   43ecc:	8809883a 	mov	r4,r17
   43ed0:	d9811b04 	addi	r6,sp,1132
   43ed4:	00423b40 	call	423b4 <__sprint_r>
   43ed8:	103a891e 	bne	r2,zero,42900 <___vfprintf_internal_r+0x518>
   43edc:	dc812417 	ldw	r18,1168(sp)
   43ee0:	da011d17 	ldw	r8,1140(sp)
   43ee4:	da400404 	addi	r9,sp,16
   43ee8:	003dc206 	br	435f4 <___vfprintf_internal_r+0x120c>
   43eec:	df012815 	stw	fp,1184(sp)
   43ef0:	d8812583 	ldbu	r2,1174(sp)
   43ef4:	df012b15 	stw	fp,1196(sp)
   43ef8:	ddc12d15 	stw	r23,1204(sp)
   43efc:	d8013115 	stw	zero,1220(sp)
   43f00:	003ac606 	br	42a1c <___vfprintf_internal_r+0x634>
   43f04:	d8812404 	addi	r2,sp,1168
   43f08:	d8800115 	stw	r2,4(sp)
   43f0c:	d8812304 	addi	r2,sp,1164
   43f10:	d8800215 	stw	r2,8(sp)
   43f14:	d8812204 	addi	r2,sp,1160
   43f18:	df000015 	stw	fp,0(sp)
   43f1c:	d8800315 	stw	r2,12(sp)
   43f20:	8809883a 	mov	r4,r17
   43f24:	b00b883a 	mov	r5,r22
   43f28:	a00d883a 	mov	r6,r20
   43f2c:	01c000c4 	movi	r7,3
   43f30:	da413c15 	stw	r9,1264(sp)
   43f34:	00446380 	call	44638 <_dtoa_r>
   43f38:	da413c17 	ldw	r9,1264(sp)
   43f3c:	1027883a 	mov	r19,r2
   43f40:	1707883a 	add	r3,r2,fp
   43f44:	e02f883a 	mov	r23,fp
   43f48:	99000007 	ldb	r4,0(r19)
   43f4c:	00800c04 	movi	r2,48
   43f50:	20800326 	beq	r4,r2,43f60 <___vfprintf_internal_r+0x1b78>
   43f54:	da812417 	ldw	r10,1168(sp)
   43f58:	1a87883a 	add	r3,r3,r10
   43f5c:	003f1406 	br	43bb0 <___vfprintf_internal_r+0x17c8>
   43f60:	b009883a 	mov	r4,r22
   43f64:	a00b883a 	mov	r5,r20
   43f68:	000d883a 	mov	r6,zero
   43f6c:	000f883a 	mov	r7,zero
   43f70:	d8c13b15 	stw	r3,1260(sp)
   43f74:	da413c15 	stw	r9,1264(sp)
   43f78:	004a5640 	call	4a564 <__nedf2>
   43f7c:	d8c13b17 	ldw	r3,1260(sp)
   43f80:	da413c17 	ldw	r9,1264(sp)
   43f84:	103ff326 	beq	r2,zero,43f54 <___vfprintf_internal_r+0x1b6c>
   43f88:	00800044 	movi	r2,1
   43f8c:	15d5c83a 	sub	r10,r2,r23
   43f90:	da812415 	stw	r10,1168(sp)
   43f94:	1a87883a 	add	r3,r3,r10
   43f98:	003f0506 	br	43bb0 <___vfprintf_internal_r+0x17c8>
   43f9c:	d9412917 	ldw	r5,1188(sp)
   43fa0:	8809883a 	mov	r4,r17
   43fa4:	d9811b04 	addi	r6,sp,1132
   43fa8:	00423b40 	call	423b4 <__sprint_r>
   43fac:	103a541e 	bne	r2,zero,42900 <___vfprintf_internal_r+0x518>
   43fb0:	dc812417 	ldw	r18,1168(sp)
   43fb4:	da011d17 	ldw	r8,1140(sp)
   43fb8:	d8c11c17 	ldw	r3,1136(sp)
   43fbc:	da400404 	addi	r9,sp,16
   43fc0:	003eb206 	br	43a8c <___vfprintf_internal_r+0x16a4>
   43fc4:	b82b883a 	mov	r21,r23
   43fc8:	0007883a 	mov	r3,zero
   43fcc:	00396306 	br	4255c <___vfprintf_internal_r+0x174>
   43fd0:	04c00174 	movhi	r19,5
   43fd4:	9cf83a04 	addi	r19,r19,-7960
   43fd8:	003f4e06 	br	43d14 <___vfprintf_internal_r+0x192c>
   43fdc:	d8812583 	ldbu	r2,1174(sp)
   43fe0:	dc012a17 	ldw	r16,1192(sp)
   43fe4:	d8013115 	stw	zero,1220(sp)
   43fe8:	003a8c06 	br	42a1c <___vfprintf_internal_r+0x634>
   43fec:	d8812417 	ldw	r2,1168(sp)
   43ff0:	d8812b15 	stw	r2,1196(sp)
   43ff4:	1029883a 	mov	r20,r2
   43ff8:	00bfff44 	movi	r2,-3
   43ffc:	a0800116 	blt	r20,r2,44004 <___vfprintf_internal_r+0x1c1c>
   44000:	e5001d0e 	bge	fp,r20,44078 <___vfprintf_internal_r+0x1c90>
   44004:	94bfff84 	addi	r18,r18,-2
   44008:	a53fffc4 	addi	r20,r20,-1
   4400c:	dd012415 	stw	r20,1168(sp)
   44010:	dc811fc5 	stb	r18,1151(sp)
   44014:	a0007216 	blt	r20,zero,441e0 <___vfprintf_internal_r+0x1df8>
   44018:	00800ac4 	movi	r2,43
   4401c:	d8812005 	stb	r2,1152(sp)
   44020:	00800244 	movi	r2,9
   44024:	15003516 	blt	r2,r20,440fc <___vfprintf_internal_r+0x1d14>
   44028:	00800c04 	movi	r2,48
   4402c:	a5000c04 	addi	r20,r20,48
   44030:	d8812045 	stb	r2,1153(sp)
   44034:	dd012085 	stb	r20,1154(sp)
   44038:	d8c120c4 	addi	r3,sp,1155
   4403c:	d8811fc4 	addi	r2,sp,1151
   44040:	1885c83a 	sub	r2,r3,r2
   44044:	d8c13217 	ldw	r3,1224(sp)
   44048:	d8813515 	stw	r2,1236(sp)
   4404c:	1885883a 	add	r2,r3,r2
   44050:	d8812b15 	stw	r2,1196(sp)
   44054:	00800044 	movi	r2,1
   44058:	10c0580e 	bge	r2,r3,441bc <___vfprintf_internal_r+0x1dd4>
   4405c:	d8812b17 	ldw	r2,1196(sp)
   44060:	10800044 	addi	r2,r2,1
   44064:	d8812b15 	stw	r2,1196(sp)
   44068:	d8812815 	stw	r2,1184(sp)
   4406c:	103ef50e 	bge	r2,zero,43c44 <___vfprintf_internal_r+0x185c>
   44070:	d8012815 	stw	zero,1184(sp)
   44074:	003ef306 	br	43c44 <___vfprintf_internal_r+0x185c>
   44078:	d8812b17 	ldw	r2,1196(sp)
   4407c:	d8c13217 	ldw	r3,1224(sp)
   44080:	10c01416 	blt	r2,r3,440d4 <___vfprintf_internal_r+0x1cec>
   44084:	8400004c 	andi	r16,r16,1
   44088:	80000326 	beq	r16,zero,44098 <___vfprintf_internal_r+0x1cb0>
   4408c:	d8812b17 	ldw	r2,1196(sp)
   44090:	10800044 	addi	r2,r2,1
   44094:	d8812b15 	stw	r2,1196(sp)
   44098:	d8812815 	stw	r2,1184(sp)
   4409c:	10001416 	blt	r2,zero,440f0 <___vfprintf_internal_r+0x1d08>
   440a0:	048019c4 	movi	r18,103
   440a4:	003ee706 	br	43c44 <___vfprintf_internal_r+0x185c>
   440a8:	d8012815 	stw	zero,1184(sp)
   440ac:	003b1a06 	br	42d18 <___vfprintf_internal_r+0x930>
   440b0:	e03e9c1e 	bne	fp,zero,43b24 <___vfprintf_internal_r+0x173c>
   440b4:	07000044 	movi	fp,1
   440b8:	003e9a06 	br	43b24 <___vfprintf_internal_r+0x173c>
   440bc:	07000184 	movi	fp,6
   440c0:	003e9806 	br	43b24 <___vfprintf_internal_r+0x173c>
   440c4:	00c00b44 	movi	r3,45
   440c8:	a520003c 	xorhi	r20,r20,32768
   440cc:	d8c12f05 	stb	r3,1212(sp)
   440d0:	003e9806 	br	43b34 <___vfprintf_internal_r+0x174c>
   440d4:	05003f0e 	bge	zero,r20,441d4 <___vfprintf_internal_r+0x1dec>
   440d8:	05000044 	movi	r20,1
   440dc:	d8c13217 	ldw	r3,1224(sp)
   440e0:	a0e9883a 	add	r20,r20,r3
   440e4:	dd012b15 	stw	r20,1196(sp)
   440e8:	dd012815 	stw	r20,1184(sp)
   440ec:	a03fec0e 	bge	r20,zero,440a0 <___vfprintf_internal_r+0x1cb8>
   440f0:	d8012815 	stw	zero,1184(sp)
   440f4:	048019c4 	movi	r18,103
   440f8:	003ed206 	br	43c44 <___vfprintf_internal_r+0x185c>
   440fc:	d8c11f84 	addi	r3,sp,1150
   44100:	102f883a 	mov	r23,r2
   44104:	4839883a 	mov	fp,r9
   44108:	a009883a 	mov	r4,r20
   4410c:	01400284 	movi	r5,10
   44110:	182d883a 	mov	r22,r3
   44114:	004aa6c0 	call	4aa6c <__modsi3>
   44118:	10800c04 	addi	r2,r2,48
   4411c:	a009883a 	mov	r4,r20
   44120:	b0800005 	stb	r2,0(r22)
   44124:	01400284 	movi	r5,10
   44128:	004aa1c0 	call	4aa1c <__divsi3>
   4412c:	1029883a 	mov	r20,r2
   44130:	b0ffffc4 	addi	r3,r22,-1
   44134:	b8bff416 	blt	r23,r2,44108 <___vfprintf_internal_r+0x1d20>
   44138:	11400c04 	addi	r5,r2,48
   4413c:	b17fffc5 	stb	r5,-1(r22)
   44140:	d8811fc4 	addi	r2,sp,1151
   44144:	e013883a 	mov	r9,fp
   44148:	18803e2e 	bgeu	r3,r2,44244 <___vfprintf_internal_r+0x1e5c>
   4414c:	b007883a 	mov	r3,r22
   44150:	d9012044 	addi	r4,sp,1153
   44154:	00000206 	br	44160 <___vfprintf_internal_r+0x1d78>
   44158:	19400003 	ldbu	r5,0(r3)
   4415c:	18c00044 	addi	r3,r3,1
   44160:	21400005 	stb	r5,0(r4)
   44164:	21000044 	addi	r4,r4,1
   44168:	10fffb1e 	bne	r2,r3,44158 <___vfprintf_internal_r+0x1d70>
   4416c:	d8c12004 	addi	r3,sp,1152
   44170:	1d87c83a 	sub	r3,r3,r22
   44174:	d9012044 	addi	r4,sp,1153
   44178:	20c7883a 	add	r3,r4,r3
   4417c:	003fb006 	br	44040 <___vfprintf_internal_r+0x1c58>
   44180:	e5c00044 	addi	r23,fp,1
   44184:	003e7406 	br	43b58 <___vfprintf_internal_r+0x1770>
   44188:	d8c12217 	ldw	r3,1160(sp)
   4418c:	003e9906 	br	43bf4 <___vfprintf_internal_r+0x180c>
   44190:	d9012d17 	ldw	r4,1204(sp)
   44194:	ac800043 	ldbu	r18,1(r21)
   44198:	b82b883a 	mov	r21,r23
   4419c:	20c00017 	ldw	r3,0(r4)
   441a0:	20800104 	addi	r2,r4,4
   441a4:	d8812d15 	stw	r2,1204(sp)
   441a8:	18002116 	blt	r3,zero,44230 <___vfprintf_internal_r+0x1e48>
   441ac:	94803fcc 	andi	r18,r18,255
   441b0:	9480201c 	xori	r18,r18,128
   441b4:	94bfe004 	addi	r18,r18,-128
   441b8:	0038e706 	br	42558 <___vfprintf_internal_r+0x170>
   441bc:	80a0703a 	and	r16,r16,r2
   441c0:	803fa61e 	bne	r16,zero,4405c <___vfprintf_internal_r+0x1c74>
   441c4:	d8812b17 	ldw	r2,1196(sp)
   441c8:	d8812815 	stw	r2,1184(sp)
   441cc:	103e9d0e 	bge	r2,zero,43c44 <___vfprintf_internal_r+0x185c>
   441d0:	003fa706 	br	44070 <___vfprintf_internal_r+0x1c88>
   441d4:	00800084 	movi	r2,2
   441d8:	1529c83a 	sub	r20,r2,r20
   441dc:	003fbf06 	br	440dc <___vfprintf_internal_r+0x1cf4>
   441e0:	00800b44 	movi	r2,45
   441e4:	0529c83a 	sub	r20,zero,r20
   441e8:	d8812005 	stb	r2,1152(sp)
   441ec:	003f8c06 	br	44020 <___vfprintf_internal_r+0x1c38>
   441f0:	008011c4 	movi	r2,71
   441f4:	90be6926 	beq	r18,r2,43b9c <___vfprintf_internal_r+0x17b4>
   441f8:	003e6a06 	br	43ba4 <___vfprintf_internal_r+0x17bc>
   441fc:	00bfffc4 	movi	r2,-1
   44200:	d8812c15 	stw	r2,1200(sp)
   44204:	0039ad06 	br	428bc <___vfprintf_internal_r+0x4d4>
   44208:	1007883a 	mov	r3,r2
   4420c:	003e7906 	br	43bf4 <___vfprintf_internal_r+0x180c>
   44210:	e000021e 	bne	fp,zero,4421c <___vfprintf_internal_r+0x1e34>
   44214:	8400004c 	andi	r16,r16,1
   44218:	80000e26 	beq	r16,zero,44254 <___vfprintf_internal_r+0x1e6c>
   4421c:	e7000084 	addi	fp,fp,2
   44220:	df012b15 	stw	fp,1196(sp)
   44224:	df012815 	stw	fp,1184(sp)
   44228:	e03e860e 	bge	fp,zero,43c44 <___vfprintf_internal_r+0x185c>
   4422c:	003f9006 	br	44070 <___vfprintf_internal_r+0x1c88>
   44230:	94803fcc 	andi	r18,r18,255
   44234:	9480201c 	xori	r18,r18,128
   44238:	00ffffc4 	movi	r3,-1
   4423c:	94bfe004 	addi	r18,r18,-128
   44240:	0038c506 	br	42558 <___vfprintf_internal_r+0x170>
   44244:	d8c12044 	addi	r3,sp,1153
   44248:	003f7d06 	br	44040 <___vfprintf_internal_r+0x1c58>
   4424c:	dd012417 	ldw	r20,1168(sp)
   44250:	003f6d06 	br	44008 <___vfprintf_internal_r+0x1c20>
   44254:	00c00044 	movi	r3,1
   44258:	d8c12815 	stw	r3,1184(sp)
   4425c:	d8c12b15 	stw	r3,1196(sp)
   44260:	003e7806 	br	43c44 <___vfprintf_internal_r+0x185c>

00044264 <__vfprintf_internal>:
   44264:	00800174 	movhi	r2,5
   44268:	10bf8b04 	addi	r2,r2,-468
   4426c:	2007883a 	mov	r3,r4
   44270:	11000017 	ldw	r4,0(r2)
   44274:	2805883a 	mov	r2,r5
   44278:	300f883a 	mov	r7,r6
   4427c:	180b883a 	mov	r5,r3
   44280:	100d883a 	mov	r6,r2
   44284:	00423e81 	jmpi	423e8 <___vfprintf_internal_r>

00044288 <__swsetup_r>:
   44288:	00800174 	movhi	r2,5
   4428c:	10bf8b04 	addi	r2,r2,-468
   44290:	10800017 	ldw	r2,0(r2)
   44294:	defffd04 	addi	sp,sp,-12
   44298:	dc400115 	stw	r17,4(sp)
   4429c:	dc000015 	stw	r16,0(sp)
   442a0:	dfc00215 	stw	ra,8(sp)
   442a4:	2023883a 	mov	r17,r4
   442a8:	2821883a 	mov	r16,r5
   442ac:	10000226 	beq	r2,zero,442b8 <__swsetup_r+0x30>
   442b0:	10c00e17 	ldw	r3,56(r2)
   442b4:	18003d26 	beq	r3,zero,443ac <__swsetup_r+0x124>
   442b8:	8080030b 	ldhu	r2,12(r16)
   442bc:	10c0020c 	andi	r3,r2,8
   442c0:	18ffffcc 	andi	r3,r3,65535
   442c4:	18e0001c 	xori	r3,r3,32768
   442c8:	18e00004 	addi	r3,r3,-32768
   442cc:	18001226 	beq	r3,zero,44318 <__swsetup_r+0x90>
   442d0:	80c00417 	ldw	r3,16(r16)
   442d4:	18001f26 	beq	r3,zero,44354 <__swsetup_r+0xcc>
   442d8:	1100004c 	andi	r4,r2,1
   442dc:	2000261e 	bne	r4,zero,44378 <__swsetup_r+0xf0>
   442e0:	1080008c 	andi	r2,r2,2
   442e4:	10bfffcc 	andi	r2,r2,65535
   442e8:	10a0001c 	xori	r2,r2,32768
   442ec:	10a00004 	addi	r2,r2,-32768
   442f0:	1000311e 	bne	r2,zero,443b8 <__swsetup_r+0x130>
   442f4:	80800517 	ldw	r2,20(r16)
   442f8:	80800215 	stw	r2,8(r16)
   442fc:	18002326 	beq	r3,zero,4438c <__swsetup_r+0x104>
   44300:	0005883a 	mov	r2,zero
   44304:	dfc00217 	ldw	ra,8(sp)
   44308:	dc400117 	ldw	r17,4(sp)
   4430c:	dc000017 	ldw	r16,0(sp)
   44310:	dec00304 	addi	sp,sp,12
   44314:	f800283a 	ret
   44318:	10c0040c 	andi	r3,r2,16
   4431c:	18ffffcc 	andi	r3,r3,65535
   44320:	18e0001c 	xori	r3,r3,32768
   44324:	18e00004 	addi	r3,r3,-32768
   44328:	18001e26 	beq	r3,zero,443a4 <__swsetup_r+0x11c>
   4432c:	10c0010c 	andi	r3,r2,4
   44330:	18ffffcc 	andi	r3,r3,65535
   44334:	18e0001c 	xori	r3,r3,32768
   44338:	18e00004 	addi	r3,r3,-32768
   4433c:	1800211e 	bne	r3,zero,443c4 <__swsetup_r+0x13c>
   44340:	80c00417 	ldw	r3,16(r16)
   44344:	11400214 	ori	r5,r2,8
   44348:	8140030d 	sth	r5,12(r16)
   4434c:	2805883a 	mov	r2,r5
   44350:	183fe11e 	bne	r3,zero,442d8 <__swsetup_r+0x50>
   44354:	1140a00c 	andi	r5,r2,640
   44358:	01008004 	movi	r4,512
   4435c:	293fde26 	beq	r5,r4,442d8 <__swsetup_r+0x50>
   44360:	8809883a 	mov	r4,r17
   44364:	800b883a 	mov	r5,r16
   44368:	0046c840 	call	46c84 <__smakebuf_r>
   4436c:	8080030b 	ldhu	r2,12(r16)
   44370:	80c00417 	ldw	r3,16(r16)
   44374:	003fd806 	br	442d8 <__swsetup_r+0x50>
   44378:	80800517 	ldw	r2,20(r16)
   4437c:	80000215 	stw	zero,8(r16)
   44380:	0085c83a 	sub	r2,zero,r2
   44384:	80800615 	stw	r2,24(r16)
   44388:	183fdd1e 	bne	r3,zero,44300 <__swsetup_r+0x78>
   4438c:	8080030b 	ldhu	r2,12(r16)
   44390:	1080200c 	andi	r2,r2,128
   44394:	10bfffcc 	andi	r2,r2,65535
   44398:	10a0001c 	xori	r2,r2,32768
   4439c:	10a00004 	addi	r2,r2,-32768
   443a0:	103fd826 	beq	r2,zero,44304 <__swsetup_r+0x7c>
   443a4:	00bfffc4 	movi	r2,-1
   443a8:	003fd606 	br	44304 <__swsetup_r+0x7c>
   443ac:	1009883a 	mov	r4,r2
   443b0:	0045f100 	call	45f10 <__sinit>
   443b4:	003fc006 	br	442b8 <__swsetup_r+0x30>
   443b8:	0005883a 	mov	r2,zero
   443bc:	80800215 	stw	r2,8(r16)
   443c0:	003fce06 	br	442fc <__swsetup_r+0x74>
   443c4:	81400c17 	ldw	r5,48(r16)
   443c8:	28000626 	beq	r5,zero,443e4 <__swsetup_r+0x15c>
   443cc:	80c01004 	addi	r3,r16,64
   443d0:	28c00326 	beq	r5,r3,443e0 <__swsetup_r+0x158>
   443d4:	8809883a 	mov	r4,r17
   443d8:	00462940 	call	46294 <_free_r>
   443dc:	8080030b 	ldhu	r2,12(r16)
   443e0:	80000c15 	stw	zero,48(r16)
   443e4:	80c00417 	ldw	r3,16(r16)
   443e8:	013ff6c4 	movi	r4,-37
   443ec:	2084703a 	and	r2,r4,r2
   443f0:	80000115 	stw	zero,4(r16)
   443f4:	80c00015 	stw	r3,0(r16)
   443f8:	003fd206 	br	44344 <__swsetup_r+0xbc>

000443fc <quorem>:
   443fc:	defff204 	addi	sp,sp,-56
   44400:	dd000815 	stw	r20,32(sp)
   44404:	20800417 	ldw	r2,16(r4)
   44408:	2d000417 	ldw	r20,16(r5)
   4440c:	dcc00715 	stw	r19,28(sp)
   44410:	dfc00d15 	stw	ra,52(sp)
   44414:	df000c15 	stw	fp,48(sp)
   44418:	ddc00b15 	stw	r23,44(sp)
   4441c:	dd800a15 	stw	r22,40(sp)
   44420:	dd400915 	stw	r21,36(sp)
   44424:	dc800615 	stw	r18,24(sp)
   44428:	dc400515 	stw	r17,20(sp)
   4442c:	dc000415 	stw	r16,16(sp)
   44430:	d9400015 	stw	r5,0(sp)
   44434:	2027883a 	mov	r19,r4
   44438:	15007d16 	blt	r2,r20,44630 <quorem+0x234>
   4443c:	a0800104 	addi	r2,r20,4
   44440:	1085883a 	add	r2,r2,r2
   44444:	1085883a 	add	r2,r2,r2
   44448:	28ad883a 	add	r22,r5,r2
   4444c:	2085883a 	add	r2,r4,r2
   44450:	10800017 	ldw	r2,0(r2)
   44454:	b1400017 	ldw	r5,0(r22)
   44458:	a53fffc4 	addi	r20,r20,-1
   4445c:	1009883a 	mov	r4,r2
   44460:	29400044 	addi	r5,r5,1
   44464:	d8800115 	stw	r2,4(sp)
   44468:	004aac80 	call	4aac8 <__udivsi3>
   4446c:	1025883a 	mov	r18,r2
   44470:	d8800017 	ldw	r2,0(sp)
   44474:	9f000504 	addi	fp,r19,20
   44478:	14000504 	addi	r16,r2,20
   4447c:	90003626 	beq	r18,zero,44558 <quorem+0x15c>
   44480:	802b883a 	mov	r21,r16
   44484:	e023883a 	mov	r17,fp
   44488:	0007883a 	mov	r3,zero
   4448c:	002f883a 	mov	r23,zero
   44490:	a9800017 	ldw	r6,0(r21)
   44494:	900b883a 	mov	r5,r18
   44498:	d8c00315 	stw	r3,12(sp)
   4449c:	313fffcc 	andi	r4,r6,65535
   444a0:	d9800215 	stw	r6,8(sp)
   444a4:	00419f00 	call	419f0 <__mulsi3>
   444a8:	d9800217 	ldw	r6,8(sp)
   444ac:	d8c00317 	ldw	r3,12(sp)
   444b0:	900b883a 	mov	r5,r18
   444b4:	3008d43a 	srli	r4,r6,16
   444b8:	1887883a 	add	r3,r3,r2
   444bc:	d8c00315 	stw	r3,12(sp)
   444c0:	00419f00 	call	419f0 <__mulsi3>
   444c4:	89400017 	ldw	r5,0(r17)
   444c8:	d8c00317 	ldw	r3,12(sp)
   444cc:	ad400104 	addi	r21,r21,4
   444d0:	293fffcc 	andi	r4,r5,65535
   444d4:	1810d43a 	srli	r8,r3,16
   444d8:	25c9883a 	add	r4,r4,r23
   444dc:	18ffffcc 	andi	r3,r3,65535
   444e0:	20c9c83a 	sub	r4,r4,r3
   444e4:	280cd43a 	srli	r6,r5,16
   444e8:	4085883a 	add	r2,r8,r2
   444ec:	2007d43a 	srai	r3,r4,16
   444f0:	117fffcc 	andi	r5,r2,65535
   444f4:	314bc83a 	sub	r5,r6,r5
   444f8:	28cb883a 	add	r5,r5,r3
   444fc:	8940008d 	sth	r5,2(r17)
   44500:	8900000d 	sth	r4,0(r17)
   44504:	1006d43a 	srli	r3,r2,16
   44508:	282fd43a 	srai	r23,r5,16
   4450c:	8c400104 	addi	r17,r17,4
   44510:	b57fdf2e 	bgeu	r22,r21,44490 <quorem+0x94>
   44514:	d8c00117 	ldw	r3,4(sp)
   44518:	18000f1e 	bne	r3,zero,44558 <quorem+0x15c>
   4451c:	a0800144 	addi	r2,r20,5
   44520:	1085883a 	add	r2,r2,r2
   44524:	1085883a 	add	r2,r2,r2
   44528:	9887883a 	add	r3,r19,r2
   4452c:	18bfff04 	addi	r2,r3,-4
   44530:	e080082e 	bgeu	fp,r2,44554 <quorem+0x158>
   44534:	18ffff17 	ldw	r3,-4(r3)
   44538:	18000326 	beq	r3,zero,44548 <quorem+0x14c>
   4453c:	00000506 	br	44554 <quorem+0x158>
   44540:	10c00017 	ldw	r3,0(r2)
   44544:	1800031e 	bne	r3,zero,44554 <quorem+0x158>
   44548:	10bfff04 	addi	r2,r2,-4
   4454c:	a53fffc4 	addi	r20,r20,-1
   44550:	e0bffb36 	bltu	fp,r2,44540 <quorem+0x144>
   44554:	9d000415 	stw	r20,16(r19)
   44558:	d9400017 	ldw	r5,0(sp)
   4455c:	9809883a 	mov	r4,r19
   44560:	0047c180 	call	47c18 <__mcmp>
   44564:	10002516 	blt	r2,zero,445fc <quorem+0x200>
   44568:	94800044 	addi	r18,r18,1
   4456c:	e007883a 	mov	r3,fp
   44570:	000d883a 	mov	r6,zero
   44574:	18800017 	ldw	r2,0(r3)
   44578:	82000017 	ldw	r8,0(r16)
   4457c:	84000104 	addi	r16,r16,4
   44580:	11ffffcc 	andi	r7,r2,65535
   44584:	413fffcc 	andi	r4,r8,65535
   44588:	398d883a 	add	r6,r7,r6
   4458c:	310fc83a 	sub	r7,r6,r4
   44590:	4010d43a 	srli	r8,r8,16
   44594:	100cd43a 	srli	r6,r2,16
   44598:	3809d43a 	srai	r4,r7,16
   4459c:	19c0000d 	sth	r7,0(r3)
   445a0:	320dc83a 	sub	r6,r6,r8
   445a4:	310d883a 	add	r6,r6,r4
   445a8:	1980008d 	sth	r6,2(r3)
   445ac:	300dd43a 	srai	r6,r6,16
   445b0:	18c00104 	addi	r3,r3,4
   445b4:	b43fef2e 	bgeu	r22,r16,44574 <quorem+0x178>
   445b8:	a0800144 	addi	r2,r20,5
   445bc:	1085883a 	add	r2,r2,r2
   445c0:	1085883a 	add	r2,r2,r2
   445c4:	9885883a 	add	r2,r19,r2
   445c8:	10c00017 	ldw	r3,0(r2)
   445cc:	18000b1e 	bne	r3,zero,445fc <quorem+0x200>
   445d0:	10ffff04 	addi	r3,r2,-4
   445d4:	e0c0082e 	bgeu	fp,r3,445f8 <quorem+0x1fc>
   445d8:	10bfff17 	ldw	r2,-4(r2)
   445dc:	10000326 	beq	r2,zero,445ec <quorem+0x1f0>
   445e0:	00000506 	br	445f8 <quorem+0x1fc>
   445e4:	18800017 	ldw	r2,0(r3)
   445e8:	1000031e 	bne	r2,zero,445f8 <quorem+0x1fc>
   445ec:	18ffff04 	addi	r3,r3,-4
   445f0:	a53fffc4 	addi	r20,r20,-1
   445f4:	e0fffb36 	bltu	fp,r3,445e4 <quorem+0x1e8>
   445f8:	9d000415 	stw	r20,16(r19)
   445fc:	9005883a 	mov	r2,r18
   44600:	dfc00d17 	ldw	ra,52(sp)
   44604:	df000c17 	ldw	fp,48(sp)
   44608:	ddc00b17 	ldw	r23,44(sp)
   4460c:	dd800a17 	ldw	r22,40(sp)
   44610:	dd400917 	ldw	r21,36(sp)
   44614:	dd000817 	ldw	r20,32(sp)
   44618:	dcc00717 	ldw	r19,28(sp)
   4461c:	dc800617 	ldw	r18,24(sp)
   44620:	dc400517 	ldw	r17,20(sp)
   44624:	dc000417 	ldw	r16,16(sp)
   44628:	dec00e04 	addi	sp,sp,56
   4462c:	f800283a 	ret
   44630:	0005883a 	mov	r2,zero
   44634:	003ff206 	br	44600 <quorem+0x204>

00044638 <_dtoa_r>:
   44638:	20801017 	ldw	r2,64(r4)
   4463c:	deffdf04 	addi	sp,sp,-132
   44640:	dcc01a15 	stw	r19,104(sp)
   44644:	dc801915 	stw	r18,100(sp)
   44648:	dc401815 	stw	r17,96(sp)
   4464c:	dc001715 	stw	r16,92(sp)
   44650:	dfc02015 	stw	ra,128(sp)
   44654:	df001f15 	stw	fp,124(sp)
   44658:	ddc01e15 	stw	r23,120(sp)
   4465c:	dd801d15 	stw	r22,116(sp)
   44660:	dd401c15 	stw	r21,112(sp)
   44664:	dd001b15 	stw	r20,108(sp)
   44668:	d9400315 	stw	r5,12(sp)
   4466c:	d9c00415 	stw	r7,16(sp)
   44670:	2021883a 	mov	r16,r4
   44674:	3025883a 	mov	r18,r6
   44678:	dcc02317 	ldw	r19,140(sp)
   4467c:	3023883a 	mov	r17,r6
   44680:	10000826 	beq	r2,zero,446a4 <_dtoa_r+0x6c>
   44684:	20c01117 	ldw	r3,68(r4)
   44688:	01800044 	movi	r6,1
   4468c:	100b883a 	mov	r5,r2
   44690:	30cc983a 	sll	r6,r6,r3
   44694:	10c00115 	stw	r3,4(r2)
   44698:	11800215 	stw	r6,8(r2)
   4469c:	00473740 	call	47374 <_Bfree>
   446a0:	80001015 	stw	zero,64(r16)
   446a4:	90002f16 	blt	r18,zero,44764 <_dtoa_r+0x12c>
   446a8:	98000015 	stw	zero,0(r19)
   446ac:	90dffc2c 	andhi	r3,r18,32752
   446b0:	009ffc34 	movhi	r2,32752
   446b4:	18801c26 	beq	r3,r2,44728 <_dtoa_r+0xf0>
   446b8:	d9000317 	ldw	r4,12(sp)
   446bc:	880b883a 	mov	r5,r17
   446c0:	000d883a 	mov	r6,zero
   446c4:	000f883a 	mov	r7,zero
   446c8:	004a5080 	call	4a508 <__eqdf2>
   446cc:	10002c1e 	bne	r2,zero,44780 <_dtoa_r+0x148>
   446d0:	d9002217 	ldw	r4,136(sp)
   446d4:	d9c02417 	ldw	r7,144(sp)
   446d8:	00800044 	movi	r2,1
   446dc:	20800015 	stw	r2,0(r4)
   446e0:	38019426 	beq	r7,zero,44d34 <_dtoa_r+0x6fc>
   446e4:	00800174 	movhi	r2,5
   446e8:	10b84744 	addi	r2,r2,-7907
   446ec:	38800015 	stw	r2,0(r7)
   446f0:	15ffffc4 	addi	r23,r2,-1
   446f4:	b805883a 	mov	r2,r23
   446f8:	dfc02017 	ldw	ra,128(sp)
   446fc:	df001f17 	ldw	fp,124(sp)
   44700:	ddc01e17 	ldw	r23,120(sp)
   44704:	dd801d17 	ldw	r22,116(sp)
   44708:	dd401c17 	ldw	r21,112(sp)
   4470c:	dd001b17 	ldw	r20,108(sp)
   44710:	dcc01a17 	ldw	r19,104(sp)
   44714:	dc801917 	ldw	r18,100(sp)
   44718:	dc401817 	ldw	r17,96(sp)
   4471c:	dc001717 	ldw	r16,92(sp)
   44720:	dec02104 	addi	sp,sp,132
   44724:	f800283a 	ret
   44728:	d8c02217 	ldw	r3,136(sp)
   4472c:	d9000317 	ldw	r4,12(sp)
   44730:	0089c3c4 	movi	r2,9999
   44734:	18800015 	stw	r2,0(r3)
   44738:	20016c26 	beq	r4,zero,44cec <_dtoa_r+0x6b4>
   4473c:	05c00174 	movhi	r23,5
   44740:	bdf85304 	addi	r23,r23,-7860
   44744:	d9c02417 	ldw	r7,144(sp)
   44748:	383fea26 	beq	r7,zero,446f4 <_dtoa_r+0xbc>
   4474c:	b88000c7 	ldb	r2,3(r23)
   44750:	10016d1e 	bne	r2,zero,44d08 <_dtoa_r+0x6d0>
   44754:	b88000c4 	addi	r2,r23,3
   44758:	d8c02417 	ldw	r3,144(sp)
   4475c:	18800015 	stw	r2,0(r3)
   44760:	003fe406 	br	446f4 <_dtoa_r+0xbc>
   44764:	04600034 	movhi	r17,32768
   44768:	8c7fffc4 	addi	r17,r17,-1
   4476c:	9462703a 	and	r17,r18,r17
   44770:	00800044 	movi	r2,1
   44774:	98800015 	stw	r2,0(r19)
   44778:	8825883a 	mov	r18,r17
   4477c:	003fcb06 	br	446ac <_dtoa_r+0x74>
   44780:	d9400317 	ldw	r5,12(sp)
   44784:	9028d53a 	srli	r20,r18,20
   44788:	d8800204 	addi	r2,sp,8
   4478c:	d8800015 	stw	r2,0(sp)
   44790:	8009883a 	mov	r4,r16
   44794:	880d883a 	mov	r6,r17
   44798:	d9c00104 	addi	r7,sp,4
   4479c:	0047fc00 	call	47fc0 <__d2b>
   447a0:	a501ffcc 	andi	r20,r20,2047
   447a4:	1039883a 	mov	fp,r2
   447a8:	a001591e 	bne	r20,zero,44d10 <_dtoa_r+0x6d8>
   447ac:	dd400217 	ldw	r21,8(sp)
   447b0:	dd000117 	ldw	r20,4(sp)
   447b4:	00befbc4 	movi	r2,-1041
   447b8:	ad29883a 	add	r20,r21,r20
   447bc:	a082d216 	blt	r20,r2,45308 <_dtoa_r+0xcd0>
   447c0:	d8c00317 	ldw	r3,12(sp)
   447c4:	013f0384 	movi	r4,-1010
   447c8:	2509c83a 	sub	r4,r4,r20
   447cc:	a0810484 	addi	r2,r20,1042
   447d0:	9124983a 	sll	r18,r18,r4
   447d4:	1884d83a 	srl	r2,r3,r2
   447d8:	9088b03a 	or	r4,r18,r2
   447dc:	004a88c0 	call	4a88c <__floatunsidf>
   447e0:	1009883a 	mov	r4,r2
   447e4:	017f8434 	movhi	r5,65040
   447e8:	00800044 	movi	r2,1
   447ec:	194b883a 	add	r5,r3,r5
   447f0:	a53fffc4 	addi	r20,r20,-1
   447f4:	d8800f15 	stw	r2,60(sp)
   447f8:	000d883a 	mov	r6,zero
   447fc:	01cffe34 	movhi	r7,16376
   44800:	004a0100 	call	4a010 <__subdf3>
   44804:	1009883a 	mov	r4,r2
   44808:	180b883a 	mov	r5,r3
   4480c:	0198dbf4 	movhi	r6,25455
   44810:	3190d844 	addi	r6,r6,17249
   44814:	01cff4f4 	movhi	r7,16339
   44818:	39e1e9c4 	addi	r7,r7,-30809
   4481c:	004a0700 	call	4a070 <__muldf3>
   44820:	180b883a 	mov	r5,r3
   44824:	01a2d874 	movhi	r6,35681
   44828:	31b22cc4 	addi	r6,r6,-14157
   4482c:	01cff1f4 	movhi	r7,16327
   44830:	39e28a04 	addi	r7,r7,-30168
   44834:	1009883a 	mov	r4,r2
   44838:	0049fbc0 	call	49fbc <__adddf3>
   4483c:	a009883a 	mov	r4,r20
   44840:	1027883a 	mov	r19,r2
   44844:	1825883a 	mov	r18,r3
   44848:	004a6e40 	call	4a6e4 <__floatsidf>
   4484c:	1009883a 	mov	r4,r2
   44850:	180b883a 	mov	r5,r3
   44854:	019427f4 	movhi	r6,20639
   44858:	319e7ec4 	addi	r6,r6,31227
   4485c:	01cff4f4 	movhi	r7,16339
   44860:	39d104c4 	addi	r7,r7,17427
   44864:	004a0700 	call	4a070 <__muldf3>
   44868:	9809883a 	mov	r4,r19
   4486c:	900b883a 	mov	r5,r18
   44870:	100d883a 	mov	r6,r2
   44874:	180f883a 	mov	r7,r3
   44878:	0049fbc0 	call	49fbc <__adddf3>
   4487c:	1009883a 	mov	r4,r2
   44880:	180b883a 	mov	r5,r3
   44884:	1027883a 	mov	r19,r2
   44888:	1825883a 	mov	r18,r3
   4488c:	004a7b80 	call	4a7b8 <__fixdfsi>
   44890:	9809883a 	mov	r4,r19
   44894:	900b883a 	mov	r5,r18
   44898:	000d883a 	mov	r6,zero
   4489c:	000f883a 	mov	r7,zero
   448a0:	d8800615 	stw	r2,24(sp)
   448a4:	004a6880 	call	4a688 <__ltdf2>
   448a8:	10027e16 	blt	r2,zero,452a4 <_dtoa_r+0xc6c>
   448ac:	d8c00617 	ldw	r3,24(sp)
   448b0:	00800584 	movi	r2,22
   448b4:	10c26c36 	bltu	r2,r3,45268 <_dtoa_r+0xc30>
   448b8:	180490fa 	slli	r2,r3,3
   448bc:	00c00174 	movhi	r3,5
   448c0:	18f87904 	addi	r3,r3,-7708
   448c4:	d9800317 	ldw	r6,12(sp)
   448c8:	1885883a 	add	r2,r3,r2
   448cc:	11000017 	ldw	r4,0(r2)
   448d0:	11400117 	ldw	r5,4(r2)
   448d4:	880f883a 	mov	r7,r17
   448d8:	004a5c00 	call	4a5c0 <__gtdf2>
   448dc:	00828f0e 	bge	zero,r2,4531c <_dtoa_r+0xce4>
   448e0:	d8800617 	ldw	r2,24(sp)
   448e4:	d8000d15 	stw	zero,52(sp)
   448e8:	10bfffc4 	addi	r2,r2,-1
   448ec:	d8800615 	stw	r2,24(sp)
   448f0:	ad29c83a 	sub	r20,r21,r20
   448f4:	a53fffc4 	addi	r20,r20,-1
   448f8:	a0026616 	blt	r20,zero,45294 <_dtoa_r+0xc5c>
   448fc:	dd000715 	stw	r20,28(sp)
   44900:	d8000815 	stw	zero,32(sp)
   44904:	d8800617 	ldw	r2,24(sp)
   44908:	10025a16 	blt	r2,zero,45274 <_dtoa_r+0xc3c>
   4490c:	d8c00717 	ldw	r3,28(sp)
   44910:	d8800b15 	stw	r2,44(sp)
   44914:	d8000a15 	stw	zero,40(sp)
   44918:	1887883a 	add	r3,r3,r2
   4491c:	d8c00715 	stw	r3,28(sp)
   44920:	d9c00417 	ldw	r7,16(sp)
   44924:	00800244 	movi	r2,9
   44928:	11c10536 	bltu	r2,r7,44d40 <_dtoa_r+0x708>
   4492c:	00800144 	movi	r2,5
   44930:	11c4c60e 	bge	r2,r7,45c4c <_dtoa_r+0x1614>
   44934:	39ffff04 	addi	r7,r7,-4
   44938:	d9c00415 	stw	r7,16(sp)
   4493c:	0027883a 	mov	r19,zero
   44940:	d9c00417 	ldw	r7,16(sp)
   44944:	008000c4 	movi	r2,3
   44948:	3883a226 	beq	r7,r2,457d4 <_dtoa_r+0x119c>
   4494c:	11c2bc16 	blt	r2,r7,45440 <_dtoa_r+0xe08>
   44950:	00800084 	movi	r2,2
   44954:	3880fb1e 	bne	r7,r2,44d44 <_dtoa_r+0x70c>
   44958:	d8000c15 	stw	zero,48(sp)
   4495c:	d9002117 	ldw	r4,132(sp)
   44960:	0103ae0e 	bge	zero,r4,4581c <_dtoa_r+0x11e4>
   44964:	2025883a 	mov	r18,r4
   44968:	d9000e15 	stw	r4,56(sp)
   4496c:	d9000915 	stw	r4,36(sp)
   44970:	80001115 	stw	zero,68(r16)
   44974:	008005c4 	movi	r2,23
   44978:	1484b22e 	bgeu	r2,r18,45c44 <_dtoa_r+0x160c>
   4497c:	00c00044 	movi	r3,1
   44980:	00800104 	movi	r2,4
   44984:	1085883a 	add	r2,r2,r2
   44988:	11000504 	addi	r4,r2,20
   4498c:	180b883a 	mov	r5,r3
   44990:	18c00044 	addi	r3,r3,1
   44994:	913ffb2e 	bgeu	r18,r4,44984 <_dtoa_r+0x34c>
   44998:	81401115 	stw	r5,68(r16)
   4499c:	8009883a 	mov	r4,r16
   449a0:	00472cc0 	call	472cc <_Balloc>
   449a4:	102f883a 	mov	r23,r2
   449a8:	80801015 	stw	r2,64(r16)
   449ac:	00800384 	movi	r2,14
   449b0:	1480f036 	bltu	r2,r18,44d74 <_dtoa_r+0x73c>
   449b4:	9800ef26 	beq	r19,zero,44d74 <_dtoa_r+0x73c>
   449b8:	d8800617 	ldw	r2,24(sp)
   449bc:	00839c0e 	bge	zero,r2,45830 <_dtoa_r+0x11f8>
   449c0:	d8c00617 	ldw	r3,24(sp)
   449c4:	108003cc 	andi	r2,r2,15
   449c8:	100490fa 	slli	r2,r2,3
   449cc:	182bd13a 	srai	r21,r3,4
   449d0:	00c00174 	movhi	r3,5
   449d4:	18f87904 	addi	r3,r3,-7708
   449d8:	1885883a 	add	r2,r3,r2
   449dc:	a8c0040c 	andi	r3,r21,16
   449e0:	12800017 	ldw	r10,0(r2)
   449e4:	15800117 	ldw	r22,4(r2)
   449e8:	18038726 	beq	r3,zero,45808 <_dtoa_r+0x11d0>
   449ec:	00800174 	movhi	r2,5
   449f0:	10b86f04 	addi	r2,r2,-7748
   449f4:	11800817 	ldw	r6,32(r2)
   449f8:	11c00917 	ldw	r7,36(r2)
   449fc:	d9000317 	ldw	r4,12(sp)
   44a00:	880b883a 	mov	r5,r17
   44a04:	da801515 	stw	r10,84(sp)
   44a08:	004a3540 	call	4a354 <__divdf3>
   44a0c:	da801517 	ldw	r10,84(sp)
   44a10:	d8801015 	stw	r2,64(sp)
   44a14:	1829883a 	mov	r20,r3
   44a18:	ad4003cc 	andi	r21,r21,15
   44a1c:	048000c4 	movi	r18,3
   44a20:	a8001126 	beq	r21,zero,44a68 <_dtoa_r+0x430>
   44a24:	04c00174 	movhi	r19,5
   44a28:	9cf86f04 	addi	r19,r19,-7748
   44a2c:	5005883a 	mov	r2,r10
   44a30:	b007883a 	mov	r3,r22
   44a34:	a980004c 	andi	r6,r21,1
   44a38:	1009883a 	mov	r4,r2
   44a3c:	a82bd07a 	srai	r21,r21,1
   44a40:	180b883a 	mov	r5,r3
   44a44:	30000426 	beq	r6,zero,44a58 <_dtoa_r+0x420>
   44a48:	99800017 	ldw	r6,0(r19)
   44a4c:	99c00117 	ldw	r7,4(r19)
   44a50:	94800044 	addi	r18,r18,1
   44a54:	004a0700 	call	4a070 <__muldf3>
   44a58:	9cc00204 	addi	r19,r19,8
   44a5c:	a83ff51e 	bne	r21,zero,44a34 <_dtoa_r+0x3fc>
   44a60:	1015883a 	mov	r10,r2
   44a64:	182d883a 	mov	r22,r3
   44a68:	d9001017 	ldw	r4,64(sp)
   44a6c:	a00b883a 	mov	r5,r20
   44a70:	500d883a 	mov	r6,r10
   44a74:	b00f883a 	mov	r7,r22
   44a78:	004a3540 	call	4a354 <__divdf3>
   44a7c:	1027883a 	mov	r19,r2
   44a80:	1829883a 	mov	r20,r3
   44a84:	d8c00d17 	ldw	r3,52(sp)
   44a88:	18000626 	beq	r3,zero,44aa4 <_dtoa_r+0x46c>
   44a8c:	9809883a 	mov	r4,r19
   44a90:	a00b883a 	mov	r5,r20
   44a94:	000d883a 	mov	r6,zero
   44a98:	01cffc34 	movhi	r7,16368
   44a9c:	004a6880 	call	4a688 <__ltdf2>
   44aa0:	10040e16 	blt	r2,zero,45adc <_dtoa_r+0x14a4>
   44aa4:	9009883a 	mov	r4,r18
   44aa8:	004a6e40 	call	4a6e4 <__floatsidf>
   44aac:	1009883a 	mov	r4,r2
   44ab0:	180b883a 	mov	r5,r3
   44ab4:	980d883a 	mov	r6,r19
   44ab8:	a00f883a 	mov	r7,r20
   44abc:	004a0700 	call	4a070 <__muldf3>
   44ac0:	1009883a 	mov	r4,r2
   44ac4:	180b883a 	mov	r5,r3
   44ac8:	000d883a 	mov	r6,zero
   44acc:	01d00734 	movhi	r7,16412
   44ad0:	0049fbc0 	call	49fbc <__adddf3>
   44ad4:	057f3034 	movhi	r21,64704
   44ad8:	1d6b883a 	add	r21,r3,r21
   44adc:	d8c00917 	ldw	r3,36(sp)
   44ae0:	1025883a 	mov	r18,r2
   44ae4:	18031f26 	beq	r3,zero,45764 <_dtoa_r+0x112c>
   44ae8:	d8800617 	ldw	r2,24(sp)
   44aec:	dac00917 	ldw	r11,36(sp)
   44af0:	d8801315 	stw	r2,76(sp)
   44af4:	d8c00c17 	ldw	r3,48(sp)
   44af8:	18039026 	beq	r3,zero,4593c <_dtoa_r+0x1304>
   44afc:	58bfffc4 	addi	r2,r11,-1
   44b00:	100490fa 	slli	r2,r2,3
   44b04:	00c00174 	movhi	r3,5
   44b08:	18f87904 	addi	r3,r3,-7708
   44b0c:	0009883a 	mov	r4,zero
   44b10:	1885883a 	add	r2,r3,r2
   44b14:	11800017 	ldw	r6,0(r2)
   44b18:	11c00117 	ldw	r7,4(r2)
   44b1c:	014ff834 	movhi	r5,16352
   44b20:	dac01615 	stw	r11,88(sp)
   44b24:	004a3540 	call	4a354 <__divdf3>
   44b28:	900d883a 	mov	r6,r18
   44b2c:	a80f883a 	mov	r7,r21
   44b30:	1009883a 	mov	r4,r2
   44b34:	180b883a 	mov	r5,r3
   44b38:	004a0100 	call	4a010 <__subdf3>
   44b3c:	a00b883a 	mov	r5,r20
   44b40:	9809883a 	mov	r4,r19
   44b44:	182b883a 	mov	r21,r3
   44b48:	d8801015 	stw	r2,64(sp)
   44b4c:	004a7b80 	call	4a7b8 <__fixdfsi>
   44b50:	1009883a 	mov	r4,r2
   44b54:	d8801515 	stw	r2,84(sp)
   44b58:	004a6e40 	call	4a6e4 <__floatsidf>
   44b5c:	9809883a 	mov	r4,r19
   44b60:	a00b883a 	mov	r5,r20
   44b64:	100d883a 	mov	r6,r2
   44b68:	180f883a 	mov	r7,r3
   44b6c:	004a0100 	call	4a010 <__subdf3>
   44b70:	da401517 	ldw	r9,84(sp)
   44b74:	d9001017 	ldw	r4,64(sp)
   44b78:	a80b883a 	mov	r5,r21
   44b7c:	4d000c04 	addi	r20,r9,48
   44b80:	bd000005 	stb	r20,0(r23)
   44b84:	100d883a 	mov	r6,r2
   44b88:	180f883a 	mov	r7,r3
   44b8c:	bd800044 	addi	r22,r23,1
   44b90:	1025883a 	mov	r18,r2
   44b94:	1827883a 	mov	r19,r3
   44b98:	004a5c00 	call	4a5c0 <__gtdf2>
   44b9c:	00842216 	blt	zero,r2,45c28 <_dtoa_r+0x15f0>
   44ba0:	0009883a 	mov	r4,zero
   44ba4:	014ffc34 	movhi	r5,16368
   44ba8:	900d883a 	mov	r6,r18
   44bac:	980f883a 	mov	r7,r19
   44bb0:	004a0100 	call	4a010 <__subdf3>
   44bb4:	d9001017 	ldw	r4,64(sp)
   44bb8:	a80b883a 	mov	r5,r21
   44bbc:	100d883a 	mov	r6,r2
   44bc0:	180f883a 	mov	r7,r3
   44bc4:	004a5c00 	call	4a5c0 <__gtdf2>
   44bc8:	dac01617 	ldw	r11,88(sp)
   44bcc:	00841316 	blt	zero,r2,45c1c <_dtoa_r+0x15e4>
   44bd0:	00800044 	movi	r2,1
   44bd4:	12c0670e 	bge	r2,r11,44d74 <_dtoa_r+0x73c>
   44bd8:	bad7883a 	add	r11,r23,r11
   44bdc:	df001115 	stw	fp,68(sp)
   44be0:	dc401215 	stw	r17,72(sp)
   44be4:	5839883a 	mov	fp,r11
   44be8:	dc401017 	ldw	r17,64(sp)
   44bec:	00000806 	br	44c10 <_dtoa_r+0x5d8>
   44bf0:	004a0100 	call	4a010 <__subdf3>
   44bf4:	1009883a 	mov	r4,r2
   44bf8:	180b883a 	mov	r5,r3
   44bfc:	880d883a 	mov	r6,r17
   44c00:	a80f883a 	mov	r7,r21
   44c04:	004a6880 	call	4a688 <__ltdf2>
   44c08:	1003ee16 	blt	r2,zero,45bc4 <_dtoa_r+0x158c>
   44c0c:	b703f126 	beq	r22,fp,45bd4 <_dtoa_r+0x159c>
   44c10:	8809883a 	mov	r4,r17
   44c14:	a80b883a 	mov	r5,r21
   44c18:	000d883a 	mov	r6,zero
   44c1c:	01d00934 	movhi	r7,16420
   44c20:	004a0700 	call	4a070 <__muldf3>
   44c24:	000d883a 	mov	r6,zero
   44c28:	01d00934 	movhi	r7,16420
   44c2c:	9009883a 	mov	r4,r18
   44c30:	980b883a 	mov	r5,r19
   44c34:	1023883a 	mov	r17,r2
   44c38:	182b883a 	mov	r21,r3
   44c3c:	004a0700 	call	4a070 <__muldf3>
   44c40:	180b883a 	mov	r5,r3
   44c44:	1009883a 	mov	r4,r2
   44c48:	1825883a 	mov	r18,r3
   44c4c:	1027883a 	mov	r19,r2
   44c50:	004a7b80 	call	4a7b8 <__fixdfsi>
   44c54:	1009883a 	mov	r4,r2
   44c58:	1029883a 	mov	r20,r2
   44c5c:	004a6e40 	call	4a6e4 <__floatsidf>
   44c60:	9809883a 	mov	r4,r19
   44c64:	900b883a 	mov	r5,r18
   44c68:	100d883a 	mov	r6,r2
   44c6c:	180f883a 	mov	r7,r3
   44c70:	004a0100 	call	4a010 <__subdf3>
   44c74:	a5000c04 	addi	r20,r20,48
   44c78:	b5000005 	stb	r20,0(r22)
   44c7c:	1009883a 	mov	r4,r2
   44c80:	180b883a 	mov	r5,r3
   44c84:	880d883a 	mov	r6,r17
   44c88:	a80f883a 	mov	r7,r21
   44c8c:	1025883a 	mov	r18,r2
   44c90:	1827883a 	mov	r19,r3
   44c94:	004a6880 	call	4a688 <__ltdf2>
   44c98:	b5800044 	addi	r22,r22,1
   44c9c:	0009883a 	mov	r4,zero
   44ca0:	014ffc34 	movhi	r5,16368
   44ca4:	900d883a 	mov	r6,r18
   44ca8:	980f883a 	mov	r7,r19
   44cac:	103fd00e 	bge	r2,zero,44bf0 <_dtoa_r+0x5b8>
   44cb0:	d9001317 	ldw	r4,76(sp)
   44cb4:	df001117 	ldw	fp,68(sp)
   44cb8:	d9000615 	stw	r4,24(sp)
   44cbc:	8009883a 	mov	r4,r16
   44cc0:	e00b883a 	mov	r5,fp
   44cc4:	00473740 	call	47374 <_Bfree>
   44cc8:	d9c00617 	ldw	r7,24(sp)
   44ccc:	d8c02217 	ldw	r3,136(sp)
   44cd0:	d9002417 	ldw	r4,144(sp)
   44cd4:	b0000005 	stb	zero,0(r22)
   44cd8:	38800044 	addi	r2,r7,1
   44cdc:	18800015 	stw	r2,0(r3)
   44ce0:	203e8426 	beq	r4,zero,446f4 <_dtoa_r+0xbc>
   44ce4:	25800015 	stw	r22,0(r4)
   44ce8:	003e8206 	br	446f4 <_dtoa_r+0xbc>
   44cec:	00800434 	movhi	r2,16
   44cf0:	10bfffc4 	addi	r2,r2,-1
   44cf4:	90a4703a 	and	r18,r18,r2
   44cf8:	903e901e 	bne	r18,zero,4473c <_dtoa_r+0x104>
   44cfc:	05c00174 	movhi	r23,5
   44d00:	bdf85004 	addi	r23,r23,-7872
   44d04:	003e8f06 	br	44744 <_dtoa_r+0x10c>
   44d08:	b8800204 	addi	r2,r23,8
   44d0c:	003e9206 	br	44758 <_dtoa_r+0x120>
   44d10:	01400434 	movhi	r5,16
   44d14:	297fffc4 	addi	r5,r5,-1
   44d18:	894a703a 	and	r5,r17,r5
   44d1c:	d9000317 	ldw	r4,12(sp)
   44d20:	294ffc34 	orhi	r5,r5,16368
   44d24:	a53f0044 	addi	r20,r20,-1023
   44d28:	dd400217 	ldw	r21,8(sp)
   44d2c:	d8000f15 	stw	zero,60(sp)
   44d30:	003eb106 	br	447f8 <_dtoa_r+0x1c0>
   44d34:	05c00174 	movhi	r23,5
   44d38:	bdf84704 	addi	r23,r23,-7908
   44d3c:	003e6d06 	br	446f4 <_dtoa_r+0xbc>
   44d40:	d8000415 	stw	zero,16(sp)
   44d44:	80001115 	stw	zero,68(r16)
   44d48:	8009883a 	mov	r4,r16
   44d4c:	000b883a 	mov	r5,zero
   44d50:	00472cc0 	call	472cc <_Balloc>
   44d54:	01ffffc4 	movi	r7,-1
   44d58:	102f883a 	mov	r23,r2
   44d5c:	80801015 	stw	r2,64(r16)
   44d60:	00800044 	movi	r2,1
   44d64:	d9c00915 	stw	r7,36(sp)
   44d68:	d8002115 	stw	zero,132(sp)
   44d6c:	d9c00e15 	stw	r7,56(sp)
   44d70:	d8800c15 	stw	r2,48(sp)
   44d74:	d8800117 	ldw	r2,4(sp)
   44d78:	10008b16 	blt	r2,zero,44fa8 <_dtoa_r+0x970>
   44d7c:	d9000617 	ldw	r4,24(sp)
   44d80:	00c00384 	movi	r3,14
   44d84:	19008816 	blt	r3,r4,44fa8 <_dtoa_r+0x970>
   44d88:	200490fa 	slli	r2,r4,3
   44d8c:	d9c02117 	ldw	r7,132(sp)
   44d90:	00c00174 	movhi	r3,5
   44d94:	18f87904 	addi	r3,r3,-7708
   44d98:	1885883a 	add	r2,r3,r2
   44d9c:	14800017 	ldw	r18,0(r2)
   44da0:	14c00117 	ldw	r19,4(r2)
   44da4:	3801c916 	blt	r7,zero,454cc <_dtoa_r+0xe94>
   44da8:	d9000317 	ldw	r4,12(sp)
   44dac:	900d883a 	mov	r6,r18
   44db0:	980f883a 	mov	r7,r19
   44db4:	880b883a 	mov	r5,r17
   44db8:	004a3540 	call	4a354 <__divdf3>
   44dbc:	180b883a 	mov	r5,r3
   44dc0:	1009883a 	mov	r4,r2
   44dc4:	004a7b80 	call	4a7b8 <__fixdfsi>
   44dc8:	1009883a 	mov	r4,r2
   44dcc:	102b883a 	mov	r21,r2
   44dd0:	004a6e40 	call	4a6e4 <__floatsidf>
   44dd4:	1009883a 	mov	r4,r2
   44dd8:	180b883a 	mov	r5,r3
   44ddc:	900d883a 	mov	r6,r18
   44de0:	980f883a 	mov	r7,r19
   44de4:	004a0700 	call	4a070 <__muldf3>
   44de8:	d9000317 	ldw	r4,12(sp)
   44dec:	880b883a 	mov	r5,r17
   44df0:	100d883a 	mov	r6,r2
   44df4:	180f883a 	mov	r7,r3
   44df8:	004a0100 	call	4a010 <__subdf3>
   44dfc:	d9c00917 	ldw	r7,36(sp)
   44e00:	1009883a 	mov	r4,r2
   44e04:	a8800c04 	addi	r2,r21,48
   44e08:	b8800005 	stb	r2,0(r23)
   44e0c:	01800044 	movi	r6,1
   44e10:	180b883a 	mov	r5,r3
   44e14:	2005883a 	mov	r2,r4
   44e18:	bd800044 	addi	r22,r23,1
   44e1c:	39803726 	beq	r7,r6,44efc <_dtoa_r+0x8c4>
   44e20:	000d883a 	mov	r6,zero
   44e24:	01d00934 	movhi	r7,16420
   44e28:	004a0700 	call	4a070 <__muldf3>
   44e2c:	1009883a 	mov	r4,r2
   44e30:	180b883a 	mov	r5,r3
   44e34:	000d883a 	mov	r6,zero
   44e38:	000f883a 	mov	r7,zero
   44e3c:	1029883a 	mov	r20,r2
   44e40:	1823883a 	mov	r17,r3
   44e44:	004a5080 	call	4a508 <__eqdf2>
   44e48:	103f9c26 	beq	r2,zero,44cbc <_dtoa_r+0x684>
   44e4c:	dd400917 	ldw	r21,36(sp)
   44e50:	dc000415 	stw	r16,16(sp)
   44e54:	00000906 	br	44e7c <_dtoa_r+0x844>
   44e58:	004a0700 	call	4a070 <__muldf3>
   44e5c:	1009883a 	mov	r4,r2
   44e60:	180b883a 	mov	r5,r3
   44e64:	000d883a 	mov	r6,zero
   44e68:	000f883a 	mov	r7,zero
   44e6c:	1029883a 	mov	r20,r2
   44e70:	1823883a 	mov	r17,r3
   44e74:	004a5080 	call	4a508 <__eqdf2>
   44e78:	10022926 	beq	r2,zero,45720 <_dtoa_r+0x10e8>
   44e7c:	900d883a 	mov	r6,r18
   44e80:	980f883a 	mov	r7,r19
   44e84:	a009883a 	mov	r4,r20
   44e88:	880b883a 	mov	r5,r17
   44e8c:	004a3540 	call	4a354 <__divdf3>
   44e90:	180b883a 	mov	r5,r3
   44e94:	1009883a 	mov	r4,r2
   44e98:	004a7b80 	call	4a7b8 <__fixdfsi>
   44e9c:	1009883a 	mov	r4,r2
   44ea0:	1021883a 	mov	r16,r2
   44ea4:	004a6e40 	call	4a6e4 <__floatsidf>
   44ea8:	1009883a 	mov	r4,r2
   44eac:	180b883a 	mov	r5,r3
   44eb0:	900d883a 	mov	r6,r18
   44eb4:	980f883a 	mov	r7,r19
   44eb8:	004a0700 	call	4a070 <__muldf3>
   44ebc:	a009883a 	mov	r4,r20
   44ec0:	880b883a 	mov	r5,r17
   44ec4:	100d883a 	mov	r6,r2
   44ec8:	180f883a 	mov	r7,r3
   44ecc:	004a0100 	call	4a010 <__subdf3>
   44ed0:	82400c04 	addi	r9,r16,48
   44ed4:	b2400005 	stb	r9,0(r22)
   44ed8:	b5800044 	addi	r22,r22,1
   44edc:	b5d3c83a 	sub	r9,r22,r23
   44ee0:	000d883a 	mov	r6,zero
   44ee4:	01d00934 	movhi	r7,16420
   44ee8:	1009883a 	mov	r4,r2
   44eec:	180b883a 	mov	r5,r3
   44ef0:	aa7fd91e 	bne	r21,r9,44e58 <_dtoa_r+0x820>
   44ef4:	802b883a 	mov	r21,r16
   44ef8:	dc000417 	ldw	r16,16(sp)
   44efc:	1009883a 	mov	r4,r2
   44f00:	180b883a 	mov	r5,r3
   44f04:	100d883a 	mov	r6,r2
   44f08:	180f883a 	mov	r7,r3
   44f0c:	0049fbc0 	call	49fbc <__adddf3>
   44f10:	9009883a 	mov	r4,r18
   44f14:	980b883a 	mov	r5,r19
   44f18:	100d883a 	mov	r6,r2
   44f1c:	180f883a 	mov	r7,r3
   44f20:	1023883a 	mov	r17,r2
   44f24:	1829883a 	mov	r20,r3
   44f28:	004a6880 	call	4a688 <__ltdf2>
   44f2c:	10000816 	blt	r2,zero,44f50 <_dtoa_r+0x918>
   44f30:	9009883a 	mov	r4,r18
   44f34:	980b883a 	mov	r5,r19
   44f38:	880d883a 	mov	r6,r17
   44f3c:	a00f883a 	mov	r7,r20
   44f40:	004a5080 	call	4a508 <__eqdf2>
   44f44:	103f5d1e 	bne	r2,zero,44cbc <_dtoa_r+0x684>
   44f48:	ad40004c 	andi	r21,r21,1
   44f4c:	a83f5b26 	beq	r21,zero,44cbc <_dtoa_r+0x684>
   44f50:	b53fffc3 	ldbu	r20,-1(r22)
   44f54:	b0ffff84 	addi	r3,r22,-2
   44f58:	01400e44 	movi	r5,57
   44f5c:	00000306 	br	44f6c <_dtoa_r+0x934>
   44f60:	1d000003 	ldbu	r20,0(r3)
   44f64:	102d883a 	mov	r22,r2
   44f68:	18ffffc4 	addi	r3,r3,-1
   44f6c:	a1003fcc 	andi	r4,r20,255
   44f70:	2100201c 	xori	r4,r4,128
   44f74:	213fe004 	addi	r4,r4,-128
   44f78:	b0bfffc4 	addi	r2,r22,-1
   44f7c:	2142ca1e 	bne	r4,r5,45aa8 <_dtoa_r+0x1470>
   44f80:	b8bff71e 	bne	r23,r2,44f60 <_dtoa_r+0x928>
   44f84:	d8800617 	ldw	r2,24(sp)
   44f88:	05000c44 	movi	r20,49
   44f8c:	10800044 	addi	r2,r2,1
   44f90:	d8800615 	stw	r2,24(sp)
   44f94:	00800c04 	movi	r2,48
   44f98:	b8800005 	stb	r2,0(r23)
   44f9c:	b805883a 	mov	r2,r23
   44fa0:	15000005 	stb	r20,0(r2)
   44fa4:	003f4506 	br	44cbc <_dtoa_r+0x684>
   44fa8:	d9c00c17 	ldw	r7,48(sp)
   44fac:	3800c926 	beq	r7,zero,452d4 <_dtoa_r+0xc9c>
   44fb0:	d9c00417 	ldw	r7,16(sp)
   44fb4:	00c00044 	movi	r3,1
   44fb8:	19c16c0e 	bge	r3,r7,4556c <_dtoa_r+0xf34>
   44fbc:	d9000917 	ldw	r4,36(sp)
   44fc0:	d9c00a17 	ldw	r7,40(sp)
   44fc4:	24ffffc4 	addi	r19,r4,-1
   44fc8:	3cc20716 	blt	r7,r19,457e8 <_dtoa_r+0x11b0>
   44fcc:	3ce7c83a 	sub	r19,r7,r19
   44fd0:	d9c00917 	ldw	r7,36(sp)
   44fd4:	3802ae16 	blt	r7,zero,45a90 <_dtoa_r+0x1458>
   44fd8:	dc800817 	ldw	r18,32(sp)
   44fdc:	d8800917 	ldw	r2,36(sp)
   44fe0:	d8c00817 	ldw	r3,32(sp)
   44fe4:	d9c00717 	ldw	r7,28(sp)
   44fe8:	8009883a 	mov	r4,r16
   44fec:	1887883a 	add	r3,r3,r2
   44ff0:	388f883a 	add	r7,r7,r2
   44ff4:	01400044 	movi	r5,1
   44ff8:	d8c00815 	stw	r3,32(sp)
   44ffc:	d9c00715 	stw	r7,28(sp)
   45000:	00476fc0 	call	476fc <__i2b>
   45004:	102b883a 	mov	r21,r2
   45008:	90000a26 	beq	r18,zero,45034 <_dtoa_r+0x9fc>
   4500c:	d8800717 	ldw	r2,28(sp)
   45010:	0080080e 	bge	zero,r2,45034 <_dtoa_r+0x9fc>
   45014:	90812b16 	blt	r18,r2,454c4 <_dtoa_r+0xe8c>
   45018:	d8c00817 	ldw	r3,32(sp)
   4501c:	d9000717 	ldw	r4,28(sp)
   45020:	90a5c83a 	sub	r18,r18,r2
   45024:	1887c83a 	sub	r3,r3,r2
   45028:	2089c83a 	sub	r4,r4,r2
   4502c:	d8c00815 	stw	r3,32(sp)
   45030:	d9000715 	stw	r4,28(sp)
   45034:	d9c00a17 	ldw	r7,40(sp)
   45038:	01c0140e 	bge	zero,r7,4508c <_dtoa_r+0xa54>
   4503c:	d8800c17 	ldw	r2,48(sp)
   45040:	1001de26 	beq	r2,zero,457bc <_dtoa_r+0x1184>
   45044:	04c00e0e 	bge	zero,r19,45080 <_dtoa_r+0xa48>
   45048:	a80b883a 	mov	r5,r21
   4504c:	8009883a 	mov	r4,r16
   45050:	980d883a 	mov	r6,r19
   45054:	00479900 	call	47990 <__pow5mult>
   45058:	e00d883a 	mov	r6,fp
   4505c:	8009883a 	mov	r4,r16
   45060:	100b883a 	mov	r5,r2
   45064:	102b883a 	mov	r21,r2
   45068:	00477380 	call	47738 <__multiply>
   4506c:	1029883a 	mov	r20,r2
   45070:	e00b883a 	mov	r5,fp
   45074:	8009883a 	mov	r4,r16
   45078:	00473740 	call	47374 <_Bfree>
   4507c:	a039883a 	mov	fp,r20
   45080:	d8c00a17 	ldw	r3,40(sp)
   45084:	1ccdc83a 	sub	r6,r3,r19
   45088:	3001291e 	bne	r6,zero,45530 <_dtoa_r+0xef8>
   4508c:	8009883a 	mov	r4,r16
   45090:	01400044 	movi	r5,1
   45094:	00476fc0 	call	476fc <__i2b>
   45098:	d9000b17 	ldw	r4,44(sp)
   4509c:	1029883a 	mov	r20,r2
   450a0:	0100050e 	bge	zero,r4,450b8 <_dtoa_r+0xa80>
   450a4:	d9800b17 	ldw	r6,44(sp)
   450a8:	8009883a 	mov	r4,r16
   450ac:	100b883a 	mov	r5,r2
   450b0:	00479900 	call	47990 <__pow5mult>
   450b4:	1029883a 	mov	r20,r2
   450b8:	d9c00417 	ldw	r7,16(sp)
   450bc:	00800044 	movi	r2,1
   450c0:	11c0f00e 	bge	r2,r7,45484 <_dtoa_r+0xe4c>
   450c4:	0023883a 	mov	r17,zero
   450c8:	d8800b17 	ldw	r2,44(sp)
   450cc:	1001741e 	bne	r2,zero,456a0 <_dtoa_r+0x1068>
   450d0:	00800044 	movi	r2,1
   450d4:	d8c00717 	ldw	r3,28(sp)
   450d8:	10c5883a 	add	r2,r2,r3
   450dc:	108007cc 	andi	r2,r2,31
   450e0:	10008026 	beq	r2,zero,452e4 <_dtoa_r+0xcac>
   450e4:	01000804 	movi	r4,32
   450e8:	2089c83a 	sub	r4,r4,r2
   450ec:	00c00104 	movi	r3,4
   450f0:	1902d00e 	bge	r3,r4,45c34 <_dtoa_r+0x15fc>
   450f4:	d9000817 	ldw	r4,32(sp)
   450f8:	d9c00717 	ldw	r7,28(sp)
   450fc:	00c00704 	movi	r3,28
   45100:	1885c83a 	sub	r2,r3,r2
   45104:	2089883a 	add	r4,r4,r2
   45108:	388f883a 	add	r7,r7,r2
   4510c:	d9000815 	stw	r4,32(sp)
   45110:	90a5883a 	add	r18,r18,r2
   45114:	d9c00715 	stw	r7,28(sp)
   45118:	d9c00817 	ldw	r7,32(sp)
   4511c:	01c0050e 	bge	zero,r7,45134 <_dtoa_r+0xafc>
   45120:	e00b883a 	mov	r5,fp
   45124:	8009883a 	mov	r4,r16
   45128:	380d883a 	mov	r6,r7
   4512c:	0047abc0 	call	47abc <__lshift>
   45130:	1039883a 	mov	fp,r2
   45134:	d8800717 	ldw	r2,28(sp)
   45138:	0080050e 	bge	zero,r2,45150 <_dtoa_r+0xb18>
   4513c:	a00b883a 	mov	r5,r20
   45140:	8009883a 	mov	r4,r16
   45144:	100d883a 	mov	r6,r2
   45148:	0047abc0 	call	47abc <__lshift>
   4514c:	1029883a 	mov	r20,r2
   45150:	d8c00d17 	ldw	r3,52(sp)
   45154:	1801401e 	bne	r3,zero,45658 <_dtoa_r+0x1020>
   45158:	d8800917 	ldw	r2,36(sp)
   4515c:	00815a0e 	bge	zero,r2,456c8 <_dtoa_r+0x1090>
   45160:	d8c00c17 	ldw	r3,48(sp)
   45164:	18006f1e 	bne	r3,zero,45324 <_dtoa_r+0xcec>
   45168:	b823883a 	mov	r17,r23
   4516c:	dc800917 	ldw	r18,36(sp)
   45170:	00000206 	br	4517c <_dtoa_r+0xb44>
   45174:	004739c0 	call	4739c <__multadd>
   45178:	1039883a 	mov	fp,r2
   4517c:	e009883a 	mov	r4,fp
   45180:	a00b883a 	mov	r5,r20
   45184:	00443fc0 	call	443fc <quorem>
   45188:	10800c04 	addi	r2,r2,48
   4518c:	88800005 	stb	r2,0(r17)
   45190:	8c400044 	addi	r17,r17,1
   45194:	8dc7c83a 	sub	r3,r17,r23
   45198:	8009883a 	mov	r4,r16
   4519c:	e00b883a 	mov	r5,fp
   451a0:	01800284 	movi	r6,10
   451a4:	000f883a 	mov	r7,zero
   451a8:	1cbff216 	blt	r3,r18,45174 <_dtoa_r+0xb3c>
   451ac:	dd800917 	ldw	r22,36(sp)
   451b0:	1007883a 	mov	r3,r2
   451b4:	05823a0e 	bge	zero,r22,45aa0 <_dtoa_r+0x1468>
   451b8:	bdad883a 	add	r22,r23,r22
   451bc:	0023883a 	mov	r17,zero
   451c0:	e00b883a 	mov	r5,fp
   451c4:	01800044 	movi	r6,1
   451c8:	8009883a 	mov	r4,r16
   451cc:	d8c01515 	stw	r3,84(sp)
   451d0:	0047abc0 	call	47abc <__lshift>
   451d4:	1009883a 	mov	r4,r2
   451d8:	a00b883a 	mov	r5,r20
   451dc:	1039883a 	mov	fp,r2
   451e0:	0047c180 	call	47c18 <__mcmp>
   451e4:	d8c01517 	ldw	r3,84(sp)
   451e8:	0080d60e 	bge	zero,r2,45544 <_dtoa_r+0xf0c>
   451ec:	b13fffc3 	ldbu	r4,-1(r22)
   451f0:	b0ffff84 	addi	r3,r22,-2
   451f4:	01800e44 	movi	r6,57
   451f8:	00000306 	br	45208 <_dtoa_r+0xbd0>
   451fc:	19000003 	ldbu	r4,0(r3)
   45200:	102d883a 	mov	r22,r2
   45204:	18ffffc4 	addi	r3,r3,-1
   45208:	21403fcc 	andi	r5,r4,255
   4520c:	2940201c 	xori	r5,r5,128
   45210:	297fe004 	addi	r5,r5,-128
   45214:	b0bfffc4 	addi	r2,r22,-1
   45218:	2981a71e 	bne	r5,r6,458b8 <_dtoa_r+0x1280>
   4521c:	b8bff71e 	bne	r23,r2,451fc <_dtoa_r+0xbc4>
   45220:	d8800617 	ldw	r2,24(sp)
   45224:	10800044 	addi	r2,r2,1
   45228:	d8800615 	stw	r2,24(sp)
   4522c:	00800c44 	movi	r2,49
   45230:	b8800005 	stb	r2,0(r23)
   45234:	8009883a 	mov	r4,r16
   45238:	a00b883a 	mov	r5,r20
   4523c:	00473740 	call	47374 <_Bfree>
   45240:	a83e9e26 	beq	r21,zero,44cbc <_dtoa_r+0x684>
   45244:	88000426 	beq	r17,zero,45258 <_dtoa_r+0xc20>
   45248:	8d400326 	beq	r17,r21,45258 <_dtoa_r+0xc20>
   4524c:	8009883a 	mov	r4,r16
   45250:	880b883a 	mov	r5,r17
   45254:	00473740 	call	47374 <_Bfree>
   45258:	8009883a 	mov	r4,r16
   4525c:	a80b883a 	mov	r5,r21
   45260:	00473740 	call	47374 <_Bfree>
   45264:	003e9506 	br	44cbc <_dtoa_r+0x684>
   45268:	00c00044 	movi	r3,1
   4526c:	d8c00d15 	stw	r3,52(sp)
   45270:	003d9f06 	br	448f0 <_dtoa_r+0x2b8>
   45274:	d9000817 	ldw	r4,32(sp)
   45278:	d8800617 	ldw	r2,24(sp)
   4527c:	d8000b15 	stw	zero,44(sp)
   45280:	2089c83a 	sub	r4,r4,r2
   45284:	0087c83a 	sub	r3,zero,r2
   45288:	d9000815 	stw	r4,32(sp)
   4528c:	d8c00a15 	stw	r3,40(sp)
   45290:	003da306 	br	44920 <_dtoa_r+0x2e8>
   45294:	0529c83a 	sub	r20,zero,r20
   45298:	dd000815 	stw	r20,32(sp)
   4529c:	d8000715 	stw	zero,28(sp)
   452a0:	003d9806 	br	44904 <_dtoa_r+0x2cc>
   452a4:	d9000617 	ldw	r4,24(sp)
   452a8:	004a6e40 	call	4a6e4 <__floatsidf>
   452ac:	1009883a 	mov	r4,r2
   452b0:	180b883a 	mov	r5,r3
   452b4:	980d883a 	mov	r6,r19
   452b8:	900f883a 	mov	r7,r18
   452bc:	004a5640 	call	4a564 <__nedf2>
   452c0:	103d7a26 	beq	r2,zero,448ac <_dtoa_r+0x274>
   452c4:	d8800617 	ldw	r2,24(sp)
   452c8:	10bfffc4 	addi	r2,r2,-1
   452cc:	d8800615 	stw	r2,24(sp)
   452d0:	003d7606 	br	448ac <_dtoa_r+0x274>
   452d4:	dcc00a17 	ldw	r19,40(sp)
   452d8:	dc800817 	ldw	r18,32(sp)
   452dc:	002b883a 	mov	r21,zero
   452e0:	003f4906 	br	45008 <_dtoa_r+0x9d0>
   452e4:	00800704 	movi	r2,28
   452e8:	d8c00817 	ldw	r3,32(sp)
   452ec:	d9000717 	ldw	r4,28(sp)
   452f0:	90a5883a 	add	r18,r18,r2
   452f4:	1887883a 	add	r3,r3,r2
   452f8:	2089883a 	add	r4,r4,r2
   452fc:	d8c00815 	stw	r3,32(sp)
   45300:	d9000715 	stw	r4,28(sp)
   45304:	003f8406 	br	45118 <_dtoa_r+0xae0>
   45308:	d9c00317 	ldw	r7,12(sp)
   4530c:	013efb84 	movi	r4,-1042
   45310:	2509c83a 	sub	r4,r4,r20
   45314:	3908983a 	sll	r4,r7,r4
   45318:	003d3006 	br	447dc <_dtoa_r+0x1a4>
   4531c:	d8000d15 	stw	zero,52(sp)
   45320:	003d7306 	br	448f0 <_dtoa_r+0x2b8>
   45324:	0480050e 	bge	zero,r18,4533c <_dtoa_r+0xd04>
   45328:	a80b883a 	mov	r5,r21
   4532c:	8009883a 	mov	r4,r16
   45330:	900d883a 	mov	r6,r18
   45334:	0047abc0 	call	47abc <__lshift>
   45338:	102b883a 	mov	r21,r2
   4533c:	8801611e 	bne	r17,zero,458c4 <_dtoa_r+0x128c>
   45340:	a827883a 	mov	r19,r21
   45344:	d8c00317 	ldw	r3,12(sp)
   45348:	d9000917 	ldw	r4,36(sp)
   4534c:	b8bfffc4 	addi	r2,r23,-1
   45350:	18c0004c 	andi	r3,r3,1
   45354:	1105883a 	add	r2,r2,r4
   45358:	b825883a 	mov	r18,r23
   4535c:	d8800515 	stw	r2,20(sp)
   45360:	a823883a 	mov	r17,r21
   45364:	d8c00315 	stw	r3,12(sp)
   45368:	ddc00715 	stw	r23,28(sp)
   4536c:	e009883a 	mov	r4,fp
   45370:	a00b883a 	mov	r5,r20
   45374:	00443fc0 	call	443fc <quorem>
   45378:	e009883a 	mov	r4,fp
   4537c:	880b883a 	mov	r5,r17
   45380:	102d883a 	mov	r22,r2
   45384:	0047c180 	call	47c18 <__mcmp>
   45388:	980d883a 	mov	r6,r19
   4538c:	8009883a 	mov	r4,r16
   45390:	a00b883a 	mov	r5,r20
   45394:	102b883a 	mov	r21,r2
   45398:	0047c700 	call	47c70 <__mdiff>
   4539c:	100d883a 	mov	r6,r2
   453a0:	10800317 	ldw	r2,12(r2)
   453a4:	b5c00c04 	addi	r23,r22,48
   453a8:	10008c26 	beq	r2,zero,455dc <_dtoa_r+0xfa4>
   453ac:	8009883a 	mov	r4,r16
   453b0:	300b883a 	mov	r5,r6
   453b4:	00473740 	call	47374 <_Bfree>
   453b8:	00800044 	movi	r2,1
   453bc:	a8007116 	blt	r21,zero,45584 <_dtoa_r+0xf4c>
   453c0:	a800041e 	bne	r21,zero,453d4 <_dtoa_r+0xd9c>
   453c4:	d9c00417 	ldw	r7,16(sp)
   453c8:	3800021e 	bne	r7,zero,453d4 <_dtoa_r+0xd9c>
   453cc:	d8c00317 	ldw	r3,12(sp)
   453d0:	18006c26 	beq	r3,zero,45584 <_dtoa_r+0xf4c>
   453d4:	00814c16 	blt	zero,r2,45908 <_dtoa_r+0x12d0>
   453d8:	d8c00517 	ldw	r3,20(sp)
   453dc:	95400044 	addi	r21,r18,1
   453e0:	95c00005 	stb	r23,0(r18)
   453e4:	a82d883a 	mov	r22,r21
   453e8:	90c14d26 	beq	r18,r3,45920 <_dtoa_r+0x12e8>
   453ec:	e00b883a 	mov	r5,fp
   453f0:	8009883a 	mov	r4,r16
   453f4:	01800284 	movi	r6,10
   453f8:	000f883a 	mov	r7,zero
   453fc:	004739c0 	call	4739c <__multadd>
   45400:	1039883a 	mov	fp,r2
   45404:	8cc08b26 	beq	r17,r19,45634 <_dtoa_r+0xffc>
   45408:	880b883a 	mov	r5,r17
   4540c:	01800284 	movi	r6,10
   45410:	000f883a 	mov	r7,zero
   45414:	8009883a 	mov	r4,r16
   45418:	004739c0 	call	4739c <__multadd>
   4541c:	980b883a 	mov	r5,r19
   45420:	8009883a 	mov	r4,r16
   45424:	01800284 	movi	r6,10
   45428:	000f883a 	mov	r7,zero
   4542c:	1023883a 	mov	r17,r2
   45430:	004739c0 	call	4739c <__multadd>
   45434:	1027883a 	mov	r19,r2
   45438:	a825883a 	mov	r18,r21
   4543c:	003fcb06 	br	4536c <_dtoa_r+0xd34>
   45440:	d9c00417 	ldw	r7,16(sp)
   45444:	00800104 	movi	r2,4
   45448:	3880e426 	beq	r7,r2,457dc <_dtoa_r+0x11a4>
   4544c:	00800144 	movi	r2,5
   45450:	38be3c1e 	bne	r7,r2,44d44 <_dtoa_r+0x70c>
   45454:	00c00044 	movi	r3,1
   45458:	d8c00c15 	stw	r3,48(sp)
   4545c:	d9c02117 	ldw	r7,132(sp)
   45460:	d8800617 	ldw	r2,24(sp)
   45464:	388f883a 	add	r7,r7,r2
   45468:	3c800044 	addi	r18,r7,1
   4546c:	d9c00e15 	stw	r7,56(sp)
   45470:	dc800915 	stw	r18,36(sp)
   45474:	04bd3e16 	blt	zero,r18,44970 <_dtoa_r+0x338>
   45478:	80001115 	stw	zero,68(r16)
   4547c:	000b883a 	mov	r5,zero
   45480:	003d4606 	br	4499c <_dtoa_r+0x364>
   45484:	d8c00317 	ldw	r3,12(sp)
   45488:	183f0e1e 	bne	r3,zero,450c4 <_dtoa_r+0xa8c>
   4548c:	00c00434 	movhi	r3,16
   45490:	18ffffc4 	addi	r3,r3,-1
   45494:	88c6703a 	and	r3,r17,r3
   45498:	183f0a1e 	bne	r3,zero,450c4 <_dtoa_r+0xa8c>
   4549c:	8c5ffc2c 	andhi	r17,r17,32752
   454a0:	883f0826 	beq	r17,zero,450c4 <_dtoa_r+0xa8c>
   454a4:	d9000817 	ldw	r4,32(sp)
   454a8:	d9c00717 	ldw	r7,28(sp)
   454ac:	1023883a 	mov	r17,r2
   454b0:	2089883a 	add	r4,r4,r2
   454b4:	388f883a 	add	r7,r7,r2
   454b8:	d9000815 	stw	r4,32(sp)
   454bc:	d9c00715 	stw	r7,28(sp)
   454c0:	003f0106 	br	450c8 <_dtoa_r+0xa90>
   454c4:	9005883a 	mov	r2,r18
   454c8:	003ed306 	br	45018 <_dtoa_r+0x9e0>
   454cc:	d8800917 	ldw	r2,36(sp)
   454d0:	00be3516 	blt	zero,r2,44da8 <_dtoa_r+0x770>
   454d4:	1000b61e 	bne	r2,zero,457b0 <_dtoa_r+0x1178>
   454d8:	9009883a 	mov	r4,r18
   454dc:	980b883a 	mov	r5,r19
   454e0:	000d883a 	mov	r6,zero
   454e4:	01d00534 	movhi	r7,16404
   454e8:	004a0700 	call	4a070 <__muldf3>
   454ec:	d9800317 	ldw	r6,12(sp)
   454f0:	1009883a 	mov	r4,r2
   454f4:	180b883a 	mov	r5,r3
   454f8:	880f883a 	mov	r7,r17
   454fc:	004a6240 	call	4a624 <__gedf2>
   45500:	0029883a 	mov	r20,zero
   45504:	002b883a 	mov	r21,zero
   45508:	10007e16 	blt	r2,zero,45704 <_dtoa_r+0x10cc>
   4550c:	d8802117 	ldw	r2,132(sp)
   45510:	b82d883a 	mov	r22,r23
   45514:	0084303a 	nor	r2,zero,r2
   45518:	d8800615 	stw	r2,24(sp)
   4551c:	8009883a 	mov	r4,r16
   45520:	a00b883a 	mov	r5,r20
   45524:	00473740 	call	47374 <_Bfree>
   45528:	a83f4b1e 	bne	r21,zero,45258 <_dtoa_r+0xc20>
   4552c:	003de306 	br	44cbc <_dtoa_r+0x684>
   45530:	e00b883a 	mov	r5,fp
   45534:	8009883a 	mov	r4,r16
   45538:	00479900 	call	47990 <__pow5mult>
   4553c:	1039883a 	mov	fp,r2
   45540:	003ed206 	br	4508c <_dtoa_r+0xa54>
   45544:	1000021e 	bne	r2,zero,45550 <_dtoa_r+0xf18>
   45548:	18c0004c 	andi	r3,r3,1
   4554c:	183f271e 	bne	r3,zero,451ec <_dtoa_r+0xbb4>
   45550:	01000c04 	movi	r4,48
   45554:	00000106 	br	4555c <_dtoa_r+0xf24>
   45558:	102d883a 	mov	r22,r2
   4555c:	b0bfffc4 	addi	r2,r22,-1
   45560:	10c00007 	ldb	r3,0(r2)
   45564:	193ffc26 	beq	r3,r4,45558 <_dtoa_r+0xf20>
   45568:	003f3206 	br	45234 <_dtoa_r+0xbfc>
   4556c:	d8c00f17 	ldw	r3,60(sp)
   45570:	18015026 	beq	r3,zero,45ab4 <_dtoa_r+0x147c>
   45574:	10810cc4 	addi	r2,r2,1075
   45578:	dcc00a17 	ldw	r19,40(sp)
   4557c:	dc800817 	ldw	r18,32(sp)
   45580:	003e9706 	br	44fe0 <_dtoa_r+0x9a8>
   45584:	b807883a 	mov	r3,r23
